Archive member included to satisfy reference by file (symbol)

c:/program files (x86)/embitz/2.10/share/armgcc/bin/../lib/gcc/arm-none-eabi/9.3.1/thumb/v6-m/nofp\libgcc.a(_udivsi3.o)
                              obj\debug\hal\src\stm32l0xx_hal_dma.o (__aeabi_uidiv)
c:/program files (x86)/embitz/2.10/share/armgcc/bin/../lib/gcc/arm-none-eabi/9.3.1/thumb/v6-m/nofp\libgcc.a(_divsi3.o)
                              obj\debug\src\convert.o (__aeabi_idivmod)
c:/program files (x86)/embitz/2.10/share/armgcc/bin/../lib/gcc/arm-none-eabi/9.3.1/thumb/v6-m/nofp\libgcc.a(_dvmd_tls.o)
                              c:/program files (x86)/embitz/2.10/share/armgcc/bin/../lib/gcc/arm-none-eabi/9.3.1/thumb/v6-m/nofp\libgcc.a(_udivsi3.o) (__aeabi_idiv0)
c:/program files (x86)/embitz/2.10/share/armgcc/bin/../lib/gcc/arm-none-eabi/9.3.1/thumb/v6-m/nofp\libgcc.a(_aeabi_uldivmod.o)
                              obj\debug\hal\src\stm32l0xx_hal_uart.o (__aeabi_uldivmod)
c:/program files (x86)/embitz/2.10/share/armgcc/bin/../lib/gcc/arm-none-eabi/9.3.1/thumb/v6-m/nofp\libgcc.a(_udivmoddi4.o)
                              c:/program files (x86)/embitz/2.10/share/armgcc/bin/../lib/gcc/arm-none-eabi/9.3.1/thumb/v6-m/nofp\libgcc.a(_aeabi_uldivmod.o) (__udivmoddi4)
c:/program files (x86)/embitz/2.10/share/armgcc/bin/../lib/gcc/arm-none-eabi/9.3.1/thumb/v6-m/nofp\libgcc.a(_clzdi2.o)
                              c:/program files (x86)/embitz/2.10/share/armgcc/bin/../lib/gcc/arm-none-eabi/9.3.1/thumb/v6-m/nofp\libgcc.a(_udivmoddi4.o) (__clzdi2)
c:/program files (x86)/embitz/2.10/share/armgcc/bin/../lib/gcc/arm-none-eabi/9.3.1/thumb/v6-m/nofp\libgcc.a(_clzsi2.o)
                              c:/program files (x86)/embitz/2.10/share/armgcc/bin/../lib/gcc/arm-none-eabi/9.3.1/thumb/v6-m/nofp\libgcc.a(_clzdi2.o) (__clzsi2)
c:/program files (x86)/embitz/2.10/share/armgcc/bin/../lib/gcc/arm-none-eabi/9.3.1/../../../../arm-none-eabi/lib/thumb/v6-m/nofp\libg_nano.a(lib_a-exit.o)
                              c:/program files (x86)/embitz/2.10/share/armgcc/bin/../lib/gcc/arm-none-eabi/9.3.1/../../../../arm-none-eabi/lib/thumb/v6-m/nofp/crt0.o (exit)
c:/program files (x86)/embitz/2.10/share/armgcc/bin/../lib/gcc/arm-none-eabi/9.3.1/../../../../arm-none-eabi/lib/thumb/v6-m/nofp\libg_nano.a(lib_a-impure.o)
                              c:/program files (x86)/embitz/2.10/share/armgcc/bin/../lib/gcc/arm-none-eabi/9.3.1/../../../../arm-none-eabi/lib/thumb/v6-m/nofp\libg_nano.a(lib_a-exit.o) (_global_impure_ptr)
c:/program files (x86)/embitz/2.10/share/armgcc/bin/../lib/gcc/arm-none-eabi/9.3.1/../../../../arm-none-eabi/lib/thumb/v6-m/nofp\libg_nano.a(lib_a-init.o)
                              c:/program files (x86)/embitz/2.10/share/armgcc/bin/../lib/gcc/arm-none-eabi/9.3.1/../../../../arm-none-eabi/lib/thumb/v6-m/nofp/crt0.o (__libc_init_array)
c:/program files (x86)/embitz/2.10/share/armgcc/bin/../lib/gcc/arm-none-eabi/9.3.1/../../../../arm-none-eabi/lib/thumb/v6-m/nofp\libg_nano.a(lib_a-memset.o)
                              c:/program files (x86)/embitz/2.10/share/armgcc/bin/../lib/gcc/arm-none-eabi/9.3.1/../../../../arm-none-eabi/lib/thumb/v6-m/nofp/crt0.o (memset)
c:/program files (x86)/embitz/2.10/share/armgcc/bin/../lib/gcc/arm-none-eabi/9.3.1/../../../../arm-none-eabi/lib/thumb/v6-m/nofp\libnosys.a(_exit.o)
                              c:/program files (x86)/embitz/2.10/share/armgcc/bin/../lib/gcc/arm-none-eabi/9.3.1/../../../../arm-none-eabi/lib/thumb/v6-m/nofp\libg_nano.a(lib_a-exit.o) (_exit)

Allocating common symbols
Common symbol       size              file

x                   0x1               obj\debug\src\drv_serial_port.o
EP0_Data            0x64              obj\debug\src\usb_functions.o
EP0Buf              0x94              obj\debug\src\usb_functions.o
convert_str         0xc               obj\debug\src\convert.o
pDataRX             0x40              obj\debug\src\usb_cdc.o
USB_DeviceAddress   0x1               obj\debug\src\usb_functions.o
FW_PE_ADDR          0x2               obj\debug\src\usb_utilities.o
COM0                0x244             obj\debug\src\drv_serial_port.o
uwTick              0x4               obj\debug\hal\src\stm32l0xx_hal.o
pFlash              0x18              obj\debug\hal\src\stm32l0xx_hal_flash.o
FW_LEN              0x2               obj\debug\src\usb_utilities.o
line_coding         0x7               obj\debug\src\usb_cdc.o
pDataTX             0x40              obj\debug\src\usb_cdc.o
rxlock              0x1               obj\debug\src\drv_serial_port.o
c                   0x1               obj\debug\src\bootloader_utils.o
COM1                0x244             obj\debug\src\drv_serial_port.o
ep1_busy_timer      0x4               obj\debug\src\drv_serial_port.o
FW_BUF              0x100             obj\debug\src\usb_utilities.o
SetupPacket         0x8               obj\debug\src\usb_functions.o
txlock              0x1               obj\debug\src\drv_serial_port.o
FW_ADDR             0x4               obj\debug\src\usb_utilities.o
EP0Data             0x8               obj\debug\src\usb_functions.o
uart_handle         0x80              obj\debug\src\drv_uart.o

Memory Configuration

Name             Origin             Length             Attributes
FLASH            0x08000000         0x00004000         xr
RAM              0x20000100         0x00001f00         xrw
*default*        0x00000000         0xffffffff

Linker script and memory map

LOAD c:/program files (x86)/embitz/2.10/share/armgcc/bin/../lib/gcc/arm-none-eabi/9.3.1/thumb/v6-m/nofp/crti.o
LOAD c:/program files (x86)/embitz/2.10/share/armgcc/bin/../lib/gcc/arm-none-eabi/9.3.1/thumb/v6-m/nofp/crtbegin.o
LOAD c:/program files (x86)/embitz/2.10/share/armgcc/bin/../lib/gcc/arm-none-eabi/9.3.1/../../../../arm-none-eabi/lib/thumb/v6-m/nofp/crt0.o
                0x00000000                __HEAP_SIZE = 0x0
                0x00000100                __STACK_SIZE = 0x100
                0x00000000                _Min_Heap_Size = __HEAP_SIZE
                0x00000100                _Min_Stack_Size = __STACK_SIZE
                0x20002000                _estack = (ORIGIN (RAM) + LENGTH (RAM))

.isr_vector     0x08000000       0xc0
                0x08000000                . = ALIGN (0x4)
 *(.isr_vector)
 .isr_vector    0x08000000       0xc0 obj\debug\src\startup_stm32l053xx.o
                0x08000000                g_pfnVectors
                0x080000c0                . = ALIGN (0x4)

.text           0x080000c0    0x142a0
                0x080000c0                . = ALIGN (0x4)
 *(.text)
 .text          0x080000c0        0x0 c:/program files (x86)/embitz/2.10/share/armgcc/bin/../lib/gcc/arm-none-eabi/9.3.1/thumb/v6-m/nofp/crti.o
 .text          0x080000c0       0x48 c:/program files (x86)/embitz/2.10/share/armgcc/bin/../lib/gcc/arm-none-eabi/9.3.1/thumb/v6-m/nofp/crtbegin.o
 .text          0x08000108       0x80 c:/program files (x86)/embitz/2.10/share/armgcc/bin/../lib/gcc/arm-none-eabi/9.3.1/../../../../arm-none-eabi/lib/thumb/v6-m/nofp/crt0.o
                0x08000108                _stack_init
                0x08000114                _start
                0x08000114                _mainCRTStartup
 .text          0x08000188       0x14 obj\debug\src\startup_stm32l053xx.o
 .text          0x0800019c        0x0 obj\debug\hal\src\stm32l0xx_hal_adc.o
 .text          0x0800019c        0x0 obj\debug\hal\src\stm32l0xx_hal_adc_ex.o
 .text          0x0800019c        0x0 obj\debug\hal\src\stm32l0xx_hal_comp.o
 .text          0x0800019c        0x0 obj\debug\hal\src\stm32l0xx_hal_comp_ex.o
 .text          0x0800019c        0x0 obj\debug\hal\src\stm32l0xx_hal_cortex.o
 .text          0x0800019c        0x0 obj\debug\hal\src\stm32l0xx_hal_crc.o
 .text          0x0800019c        0x0 obj\debug\hal\src\stm32l0xx_hal_crc_ex.o
 .text          0x0800019c        0x0 obj\debug\hal\src\stm32l0xx_hal_cryp.o
 .text          0x0800019c        0x0 obj\debug\hal\src\stm32l0xx_hal_cryp_ex.o
 .text          0x0800019c        0x0 obj\debug\hal\src\stm32l0xx_hal_dac.o
 .text          0x0800019c        0x0 obj\debug\hal\src\stm32l0xx_hal_dac_ex.o
 .text          0x0800019c        0x0 obj\debug\hal\src\stm32l0xx_hal_dma.o
 .text          0x0800019c        0x0 obj\debug\hal\src\stm32l0xx_hal_firewall.o
 .text          0x0800019c        0x0 obj\debug\hal\src\stm32l0xx_hal_flash.o
 .text          0x0800019c        0x0 obj\debug\hal\src\stm32l0xx_hal_flash_ex.o
 .text          0x0800019c        0x0 obj\debug\hal\src\stm32l0xx_hal_flash_ramfunc.o
 .text          0x0800019c        0x0 obj\debug\hal\src\stm32l0xx_hal_gpio.o
 .text          0x0800019c        0x0 obj\debug\hal\src\stm32l0xx_hal_i2c.o
 .text          0x0800019c        0x0 obj\debug\hal\src\stm32l0xx_hal_i2c_ex.o
 .text          0x0800019c        0x0 obj\debug\hal\src\stm32l0xx_hal_i2s.o
 .text          0x0800019c        0x0 obj\debug\hal\src\stm32l0xx_hal_irda.o
 .text          0x0800019c        0x0 obj\debug\hal\src\stm32l0xx_hal_iwdg.o
 .text          0x0800019c        0x0 obj\debug\hal\src\stm32l0xx_hal_lcd.o
 .text          0x0800019c        0x0 obj\debug\hal\src\stm32l0xx_hal_lptim.o
 .text          0x0800019c        0x0 obj\debug\hal\src\stm32l0xx_hal_pcd.o
 .text          0x0800019c        0x0 obj\debug\hal\src\stm32l0xx_hal_pcd_ex.o
 .text          0x0800019c        0x0 obj\debug\hal\src\stm32l0xx_hal_pwr.o
 .text          0x0800019c        0x0 obj\debug\hal\src\stm32l0xx_hal_pwr_ex.o
 .text          0x0800019c        0x0 obj\debug\hal\src\stm32l0xx_hal_rcc.o
 .text          0x0800019c        0x0 obj\debug\hal\src\stm32l0xx_hal_rcc_ex.o
 .text          0x0800019c        0x0 obj\debug\hal\src\stm32l0xx_hal_rng.o
 .text          0x0800019c        0x0 obj\debug\hal\src\stm32l0xx_hal_rtc.o
 .text          0x0800019c        0x0 obj\debug\hal\src\stm32l0xx_hal_rtc_ex.o
 .text          0x0800019c        0x0 obj\debug\hal\src\stm32l0xx_hal_smartcard.o
 .text          0x0800019c        0x0 obj\debug\hal\src\stm32l0xx_hal_smartcard_ex.o
 .text          0x0800019c        0x0 obj\debug\hal\src\stm32l0xx_hal_smbus.o
 .text          0x0800019c        0x0 obj\debug\hal\src\stm32l0xx_hal_spi.o
 .text          0x0800019c        0x0 obj\debug\hal\src\stm32l0xx_hal_tim.o
 .text          0x0800019c        0x0 obj\debug\hal\src\stm32l0xx_hal_tim_ex.o
 .text          0x0800019c        0x0 obj\debug\hal\src\stm32l0xx_hal_tsc.o
 .text          0x0800019c        0x0 obj\debug\hal\src\stm32l0xx_hal_uart.o
 .text          0x0800019c        0x0 obj\debug\hal\src\stm32l0xx_hal_uart_ex.o
 .text          0x0800019c        0x0 obj\debug\hal\src\stm32l0xx_hal_usart.o
 .text          0x0800019c        0x0 obj\debug\hal\src\stm32l0xx_hal_wwdg.o
 .text          0x0800019c        0x0 obj\debug\src\bootloader_api_push.o
 .text          0x0800019c        0x0 obj\debug\src\bootloader_utils.o
 .text          0x0800019c        0x0 obj\debug\src\convert.o
 .text          0x0800019c        0x0 obj\debug\src\drv_clock.o
 .text          0x0800019c        0x0 obj\debug\src\drv_flash.o
 .text          0x0800019c        0x0 obj\debug\src\drv_serial_port.o
 .text          0x0800019c        0x0 obj\debug\src\drv_uart.o
 .text          0x0800019c        0x0 obj\debug\src\drv_usb_main.o
 .text          0x0800019c        0x0 obj\debug\src\main.o
 .text          0x0800019c        0x0 obj\debug\src\sim.o
 .text          0x0800019c        0x0 obj\debug\hal\src\stm32l0xx_hal.o
 .text          0x0800019c        0x0 obj\debug\src\system_stm32l0xx.o
 .text          0x0800019c        0x0 obj\debug\src\usb_cdc.o
 .text          0x0800019c        0x0 obj\debug\src\usb_functions.o
 .text          0x0800019c        0x0 obj\debug\src\usb_utilities.o
 .text          0x0800019c        0x0 obj\debug\src\usbdesc.o
 .text          0x0800019c      0x114 c:/program files (x86)/embitz/2.10/share/armgcc/bin/../lib/gcc/arm-none-eabi/9.3.1/thumb/v6-m/nofp\libgcc.a(_udivsi3.o)
                0x0800019c                __aeabi_uidiv
                0x0800019c                __udivsi3
                0x080002a8                __aeabi_uidivmod
 .text          0x080002b0      0x1d4 c:/program files (x86)/embitz/2.10/share/armgcc/bin/../lib/gcc/arm-none-eabi/9.3.1/thumb/v6-m/nofp\libgcc.a(_divsi3.o)
                0x080002b0                __divsi3
                0x080002b0                __aeabi_idiv
                0x0800047c                __aeabi_idivmod
 .text          0x08000484        0x4 c:/program files (x86)/embitz/2.10/share/armgcc/bin/../lib/gcc/arm-none-eabi/9.3.1/thumb/v6-m/nofp\libgcc.a(_dvmd_tls.o)
                0x08000484                __aeabi_idiv0
                0x08000484                __aeabi_ldiv0
 .text          0x08000488       0x40 c:/program files (x86)/embitz/2.10/share/armgcc/bin/../lib/gcc/arm-none-eabi/9.3.1/thumb/v6-m/nofp\libgcc.a(_aeabi_uldivmod.o)
                0x08000488                __aeabi_uldivmod
 .text          0x080004c8      0x198 c:/program files (x86)/embitz/2.10/share/armgcc/bin/../lib/gcc/arm-none-eabi/9.3.1/thumb/v6-m/nofp\libgcc.a(_udivmoddi4.o)
                0x080004c8                __udivmoddi4
 .text          0x08000660       0x18 c:/program files (x86)/embitz/2.10/share/armgcc/bin/../lib/gcc/arm-none-eabi/9.3.1/thumb/v6-m/nofp\libgcc.a(_clzdi2.o)
                0x08000660                __clzdi2
 .text          0x08000678       0x3c c:/program files (x86)/embitz/2.10/share/armgcc/bin/../lib/gcc/arm-none-eabi/9.3.1/thumb/v6-m/nofp\libgcc.a(_clzsi2.o)
                0x08000678                __clzsi2
 .text          0x080006b4        0x0 c:/program files (x86)/embitz/2.10/share/armgcc/bin/../lib/gcc/arm-none-eabi/9.3.1/../../../../arm-none-eabi/lib/thumb/v6-m/nofp\libg_nano.a(lib_a-exit.o)
 .text          0x080006b4        0x0 c:/program files (x86)/embitz/2.10/share/armgcc/bin/../lib/gcc/arm-none-eabi/9.3.1/../../../../arm-none-eabi/lib/thumb/v6-m/nofp\libg_nano.a(lib_a-impure.o)
 .text          0x080006b4        0x0 c:/program files (x86)/embitz/2.10/share/armgcc/bin/../lib/gcc/arm-none-eabi/9.3.1/../../../../arm-none-eabi/lib/thumb/v6-m/nofp\libg_nano.a(lib_a-init.o)
 .text          0x080006b4        0x0 c:/program files (x86)/embitz/2.10/share/armgcc/bin/../lib/gcc/arm-none-eabi/9.3.1/../../../../arm-none-eabi/lib/thumb/v6-m/nofp\libg_nano.a(lib_a-memset.o)
 .text          0x080006b4        0x0 c:/program files (x86)/embitz/2.10/share/armgcc/bin/../lib/gcc/arm-none-eabi/9.3.1/../../../../arm-none-eabi/lib/thumb/v6-m/nofp\libnosys.a(_exit.o)
 .text          0x080006b4        0x0 c:/program files (x86)/embitz/2.10/share/armgcc/bin/../lib/gcc/arm-none-eabi/9.3.1/thumb/v6-m/nofp/crtend.o
 .text          0x080006b4        0x0 c:/program files (x86)/embitz/2.10/share/armgcc/bin/../lib/gcc/arm-none-eabi/9.3.1/thumb/v6-m/nofp/crtn.o
 *(.text*)
 .text.Reset_Handler
                0x080006b4       0x4c obj\debug\src\startup_stm32l053xx.o
                0x080006b4                Reset_Handler
 .text.Default_Handler
                0x08000700        0x2 obj\debug\src\startup_stm32l053xx.o
                0x08000700                TSC_IRQHandler
                0x08000700                HardFault_Handler
                0x08000700                ADC1_COMP_IRQHandler
                0x08000700                SysTick_Handler
                0x08000700                PVD_IRQHandler
                0x08000700                PendSV_Handler
                0x08000700                NMI_Handler
                0x08000700                I2C1_IRQHandler
                0x08000700                RCC_CRS_IRQHandler
                0x08000700                SPI1_IRQHandler
                0x08000700                TIM6_DAC_IRQHandler
                0x08000700                EXTI2_3_IRQHandler
                0x08000700                I2C2_IRQHandler
                0x08000700                RTC_IRQHandler
                0x08000700                LCD_IRQHandler
                0x08000700                DMA1_Channel4_5_6_7_IRQHandler
                0x08000700                EXTI4_15_IRQHandler
                0x08000700                DMA1_Channel1_IRQHandler
                0x08000700                Default_Handler
                0x08000700                TIM22_IRQHandler
                0x08000700                EXTI0_1_IRQHandler
                0x08000700                SPI2_IRQHandler
                0x08000700                SVC_Handler
                0x08000700                TIM21_IRQHandler
                0x08000700                WWDG_IRQHandler
                0x08000700                TIM2_IRQHandler
                0x08000700                DMA1_Channel2_3_IRQHandler
                0x08000700                USART2_IRQHandler
                0x08000700                FLASH_IRQHandler
                0x08000700                RNG_LPUART1_IRQHandler
                0x08000700                LPTIM1_IRQHandler
 *fill*         0x08000702        0x2 
 .text.__NVIC_EnableIRQ
                0x08000704       0x34 obj\debug\hal\src\stm32l0xx_hal_cortex.o
 .text.__NVIC_DisableIRQ
                0x08000738       0x44 obj\debug\hal\src\stm32l0xx_hal_cortex.o
 .text.__NVIC_GetPendingIRQ
                0x0800077c       0x40 obj\debug\hal\src\stm32l0xx_hal_cortex.o
 .text.__NVIC_SetPendingIRQ
                0x080007bc       0x38 obj\debug\hal\src\stm32l0xx_hal_cortex.o
 .text.__NVIC_ClearPendingIRQ
                0x080007f4       0x38 obj\debug\hal\src\stm32l0xx_hal_cortex.o
 .text.__NVIC_SetPriority
                0x0800082c       0xdc obj\debug\hal\src\stm32l0xx_hal_cortex.o
 .text.__NVIC_GetPriority
                0x08000908       0x7c obj\debug\hal\src\stm32l0xx_hal_cortex.o
 .text.__NVIC_SystemReset
                0x08000984       0x24 obj\debug\hal\src\stm32l0xx_hal_cortex.o
 .text.SysTick_Config
                0x080009a8       0x48 obj\debug\hal\src\stm32l0xx_hal_cortex.o
 .text.HAL_NVIC_SetPriority
                0x080009f0       0x2a obj\debug\hal\src\stm32l0xx_hal_cortex.o
                0x080009f0                HAL_NVIC_SetPriority
 .text.HAL_NVIC_EnableIRQ
                0x08000a1a       0x20 obj\debug\hal\src\stm32l0xx_hal_cortex.o
                0x08000a1a                HAL_NVIC_EnableIRQ
 .text.HAL_NVIC_DisableIRQ
                0x08000a3a       0x20 obj\debug\hal\src\stm32l0xx_hal_cortex.o
                0x08000a3a                HAL_NVIC_DisableIRQ
 .text.HAL_NVIC_SystemReset
                0x08000a5a        0x8 obj\debug\hal\src\stm32l0xx_hal_cortex.o
                0x08000a5a                HAL_NVIC_SystemReset
 .text.HAL_SYSTICK_Config
                0x08000a62       0x1a obj\debug\hal\src\stm32l0xx_hal_cortex.o
                0x08000a62                HAL_SYSTICK_Config
 .text.HAL_NVIC_GetPriority
                0x08000a7c       0x22 obj\debug\hal\src\stm32l0xx_hal_cortex.o
                0x08000a7c                HAL_NVIC_GetPriority
 .text.HAL_NVIC_SetPendingIRQ
                0x08000a9e       0x20 obj\debug\hal\src\stm32l0xx_hal_cortex.o
                0x08000a9e                HAL_NVIC_SetPendingIRQ
 .text.HAL_NVIC_GetPendingIRQ
                0x08000abe       0x22 obj\debug\hal\src\stm32l0xx_hal_cortex.o
                0x08000abe                HAL_NVIC_GetPendingIRQ
 .text.HAL_NVIC_ClearPendingIRQ
                0x08000ae0       0x20 obj\debug\hal\src\stm32l0xx_hal_cortex.o
                0x08000ae0                HAL_NVIC_ClearPendingIRQ
 .text.HAL_SYSTICK_CLKSourceConfig
                0x08000b00       0x34 obj\debug\hal\src\stm32l0xx_hal_cortex.o
                0x08000b00                HAL_SYSTICK_CLKSourceConfig
 .text.HAL_SYSTICK_IRQHandler
                0x08000b34        0xe obj\debug\hal\src\stm32l0xx_hal_cortex.o
                0x08000b34                HAL_SYSTICK_IRQHandler
 .text.HAL_SYSTICK_Callback
                0x08000b42        0xa obj\debug\hal\src\stm32l0xx_hal_cortex.o
                0x08000b42                HAL_SYSTICK_Callback
 .text.HAL_MPU_Disable
                0x08000b4c       0x1c obj\debug\hal\src\stm32l0xx_hal_cortex.o
                0x08000b4c                HAL_MPU_Disable
 .text.HAL_MPU_Enable
                0x08000b68       0x2c obj\debug\hal\src\stm32l0xx_hal_cortex.o
                0x08000b68                HAL_MPU_Enable
 .text.HAL_MPU_ConfigRegion
                0x08000b94       0x80 obj\debug\hal\src\stm32l0xx_hal_cortex.o
                0x08000b94                HAL_MPU_ConfigRegion
 .text.HAL_DMA_Init
                0x08000c14       0xf0 obj\debug\hal\src\stm32l0xx_hal_dma.o
                0x08000c14                HAL_DMA_Init
 .text.HAL_DMA_DeInit
                0x08000d04       0xbc obj\debug\hal\src\stm32l0xx_hal_dma.o
                0x08000d04                HAL_DMA_DeInit
 .text.HAL_DMA_Start
                0x08000dc0       0x92 obj\debug\hal\src\stm32l0xx_hal_dma.o
                0x08000dc0                HAL_DMA_Start
 .text.HAL_DMA_Start_IT
                0x08000e52       0xcc obj\debug\hal\src\stm32l0xx_hal_dma.o
                0x08000e52                HAL_DMA_Start_IT
 .text.HAL_DMA_Abort
                0x08000f1e       0x80 obj\debug\hal\src\stm32l0xx_hal_dma.o
                0x08000f1e                HAL_DMA_Abort
 .text.HAL_DMA_Abort_IT
                0x08000f9e       0x8e obj\debug\hal\src\stm32l0xx_hal_dma.o
                0x08000f9e                HAL_DMA_Abort_IT
 .text.HAL_DMA_PollForTransfer
                0x0800102c      0x154 obj\debug\hal\src\stm32l0xx_hal_dma.o
                0x0800102c                HAL_DMA_PollForTransfer
 .text.HAL_DMA_IRQHandler
                0x08001180      0x15c obj\debug\hal\src\stm32l0xx_hal_dma.o
                0x08001180                HAL_DMA_IRQHandler
 .text.HAL_DMA_RegisterCallback
                0x080012dc       0xa0 obj\debug\hal\src\stm32l0xx_hal_dma.o
                0x080012dc                HAL_DMA_RegisterCallback
 .text.HAL_DMA_UnRegisterCallback
                0x0800137c       0xb0 obj\debug\hal\src\stm32l0xx_hal_dma.o
                0x0800137c                HAL_DMA_UnRegisterCallback
 .text.HAL_DMA_GetState
                0x0800142c       0x18 obj\debug\hal\src\stm32l0xx_hal_dma.o
                0x0800142c                HAL_DMA_GetState
 .text.HAL_DMA_GetError
                0x08001444       0x14 obj\debug\hal\src\stm32l0xx_hal_dma.o
                0x08001444                HAL_DMA_GetError
 .text.DMA_SetConfig
                0x08001458       0x5c obj\debug\hal\src\stm32l0xx_hal_dma.o
 .text.HAL_FLASH_Program
                0x080014b4       0x78 obj\debug\hal\src\stm32l0xx_hal_flash.o
                0x080014b4                HAL_FLASH_Program
 .text.HAL_FLASH_Program_IT
                0x0800152c       0x68 obj\debug\hal\src\stm32l0xx_hal_flash.o
                0x0800152c                HAL_FLASH_Program_IT
 .text.HAL_FLASH_IRQHandler
                0x08001594      0x1a8 obj\debug\hal\src\stm32l0xx_hal_flash.o
                0x08001594                HAL_FLASH_IRQHandler
 .text.HAL_FLASH_EndOfOperationCallback
                0x0800173c       0x10 obj\debug\hal\src\stm32l0xx_hal_flash.o
                0x0800173c                HAL_FLASH_EndOfOperationCallback
 .text.HAL_FLASH_OperationErrorCallback
                0x0800174c       0x10 obj\debug\hal\src\stm32l0xx_hal_flash.o
                0x0800174c                HAL_FLASH_OperationErrorCallback
 .text.HAL_FLASH_Unlock
                0x0800175c       0xa8 obj\debug\hal\src\stm32l0xx_hal_flash.o
                0x0800175c                HAL_FLASH_Unlock
 .text.HAL_FLASH_Lock
                0x08001804       0x28 obj\debug\hal\src\stm32l0xx_hal_flash.o
                0x08001804                HAL_FLASH_Lock
 .text.HAL_FLASH_OB_Unlock
                0x0800182c       0x74 obj\debug\hal\src\stm32l0xx_hal_flash.o
                0x0800182c                HAL_FLASH_OB_Unlock
 .text.HAL_FLASH_OB_Lock
                0x080018a0       0x1c obj\debug\hal\src\stm32l0xx_hal_flash.o
                0x080018a0                HAL_FLASH_OB_Lock
 .text.HAL_FLASH_OB_Launch
                0x080018bc       0x2c obj\debug\hal\src\stm32l0xx_hal_flash.o
                0x080018bc                HAL_FLASH_OB_Launch
 .text.HAL_FLASH_GetError
                0x080018e8       0x14 obj\debug\hal\src\stm32l0xx_hal_flash.o
                0x080018e8                HAL_FLASH_GetError
 .text.FLASH_WaitForLastOperation
                0x080018fc       0xe4 obj\debug\hal\src\stm32l0xx_hal_flash.o
                0x080018fc                FLASH_WaitForLastOperation
 .text.FLASH_SetErrorCode
                0x080019e0      0x138 obj\debug\hal\src\stm32l0xx_hal_flash.o
 .text.HAL_FLASHEx_Erase
                0x08001b18       0xcc obj\debug\hal\src\stm32l0xx_hal_flash_ex.o
                0x08001b18                HAL_FLASHEx_Erase
 .text.HAL_FLASHEx_Erase_IT
                0x08001be4       0x98 obj\debug\hal\src\stm32l0xx_hal_flash_ex.o
                0x08001be4                HAL_FLASHEx_Erase_IT
 .text.HAL_FLASHEx_OBProgram
                0x08001c7c      0x140 obj\debug\hal\src\stm32l0xx_hal_flash_ex.o
                0x08001c7c                HAL_FLASHEx_OBProgram
 .text.HAL_FLASHEx_OBGetConfig
                0x08001dbc       0x50 obj\debug\hal\src\stm32l0xx_hal_flash_ex.o
                0x08001dbc                HAL_FLASHEx_OBGetConfig
 .text.HAL_FLASHEx_AdvOBProgram
                0x08001e0c       0x3e obj\debug\hal\src\stm32l0xx_hal_flash_ex.o
                0x08001e0c                HAL_FLASHEx_AdvOBProgram
 *fill*         0x08001e4a        0x2 
 .text.HAL_FLASHEx_AdvOBGetConfig
                0x08001e4c       0x3c obj\debug\hal\src\stm32l0xx_hal_flash_ex.o
                0x08001e4c                HAL_FLASHEx_AdvOBGetConfig
 .text.HAL_FLASHEx_OB_SelectPCROP
                0x08001e88       0xa4 obj\debug\hal\src\stm32l0xx_hal_flash_ex.o
                0x08001e88                HAL_FLASHEx_OB_SelectPCROP
 .text.HAL_FLASHEx_OB_DeSelectPCROP
                0x08001f2c       0x98 obj\debug\hal\src\stm32l0xx_hal_flash_ex.o
                0x08001f2c                HAL_FLASHEx_OB_DeSelectPCROP
 .text.HAL_FLASHEx_DATAEEPROM_Unlock
                0x08001fc4       0x5c obj\debug\hal\src\stm32l0xx_hal_flash_ex.o
                0x08001fc4                HAL_FLASHEx_DATAEEPROM_Unlock
 .text.HAL_FLASHEx_DATAEEPROM_Lock
                0x08002020       0x1c obj\debug\hal\src\stm32l0xx_hal_flash_ex.o
                0x08002020                HAL_FLASHEx_DATAEEPROM_Lock
 .text.HAL_FLASHEx_DATAEEPROM_Erase
                0x0800203c       0x58 obj\debug\hal\src\stm32l0xx_hal_flash_ex.o
                0x0800203c                HAL_FLASHEx_DATAEEPROM_Erase
 .text.HAL_FLASHEx_DATAEEPROM_Program
                0x08002094       0xb0 obj\debug\hal\src\stm32l0xx_hal_flash_ex.o
                0x08002094                HAL_FLASHEx_DATAEEPROM_Program
 .text.HAL_FLASHEx_DATAEEPROM_EnableFixedTimeProgram
                0x08002144       0x1c obj\debug\hal\src\stm32l0xx_hal_flash_ex.o
                0x08002144                HAL_FLASHEx_DATAEEPROM_EnableFixedTimeProgram
 .text.HAL_FLASHEx_DATAEEPROM_DisableFixedTimeProgram
                0x08002160       0x20 obj\debug\hal\src\stm32l0xx_hal_flash_ex.o
                0x08002160                HAL_FLASHEx_DATAEEPROM_DisableFixedTimeProgram
 .text.FLASH_OB_RDPConfig
                0x08002180       0xa0 obj\debug\hal\src\stm32l0xx_hal_flash_ex.o
 .text.FLASH_OB_BORConfig
                0x08002220       0x94 obj\debug\hal\src\stm32l0xx_hal_flash_ex.o
 .text.FLASH_OB_BOOTBit1Config
                0x080022b4       0x94 obj\debug\hal\src\stm32l0xx_hal_flash_ex.o
 .text.FLASH_OB_GetUser
                0x08002348       0x1c obj\debug\hal\src\stm32l0xx_hal_flash_ex.o
 .text.FLASH_OB_GetRDP
                0x08002364       0x34 obj\debug\hal\src\stm32l0xx_hal_flash_ex.o
 .text.FLASH_OB_GetBOR
                0x08002398       0x1c obj\debug\hal\src\stm32l0xx_hal_flash_ex.o
 .text.FLASH_OB_GetBOOTBit1
                0x080023b4       0x1c obj\debug\hal\src\stm32l0xx_hal_flash_ex.o
 .text.FLASH_OB_GetWRP
                0x080023d0       0x14 obj\debug\hal\src\stm32l0xx_hal_flash_ex.o
 .text.FLASH_OB_ProtectedSectorsConfig
                0x080023e4       0xb4 obj\debug\hal\src\stm32l0xx_hal_flash_ex.o
 .text.FLASH_OB_UserConfig
                0x08002498       0xcc obj\debug\hal\src\stm32l0xx_hal_flash_ex.o
 .text.FLASH_PageErase
                0x08002564       0x44 obj\debug\hal\src\stm32l0xx_hal_flash_ex.o
                0x08002564                FLASH_PageErase
 .text.HAL_GPIO_Init
                0x080025a8      0x2ec obj\debug\hal\src\stm32l0xx_hal_gpio.o
                0x080025a8                HAL_GPIO_Init
 .text.HAL_GPIO_DeInit
                0x08002894      0x1b4 obj\debug\hal\src\stm32l0xx_hal_gpio.o
                0x08002894                HAL_GPIO_DeInit
 .text.HAL_GPIO_ReadPin
                0x08002a48       0x3a obj\debug\hal\src\stm32l0xx_hal_gpio.o
                0x08002a48                HAL_GPIO_ReadPin
 .text.HAL_GPIO_WritePin
                0x08002a82       0x3a obj\debug\hal\src\stm32l0xx_hal_gpio.o
                0x08002a82                HAL_GPIO_WritePin
 .text.HAL_GPIO_TogglePin
                0x08002abc       0x24 obj\debug\hal\src\stm32l0xx_hal_gpio.o
                0x08002abc                HAL_GPIO_TogglePin
 .text.HAL_GPIO_LockPin
                0x08002ae0       0x52 obj\debug\hal\src\stm32l0xx_hal_gpio.o
                0x08002ae0                HAL_GPIO_LockPin
 *fill*         0x08002b32        0x2 
 .text.HAL_GPIO_EXTI_IRQHandler
                0x08002b34       0x38 obj\debug\hal\src\stm32l0xx_hal_gpio.o
                0x08002b34                HAL_GPIO_EXTI_IRQHandler
 .text.HAL_GPIO_EXTI_Callback
                0x08002b6c       0x14 obj\debug\hal\src\stm32l0xx_hal_gpio.o
                0x08002b6c                HAL_GPIO_EXTI_Callback
 .text.HAL_LPTIM_Init
                0x08002b80      0x100 obj\debug\hal\src\stm32l0xx_hal_lptim.o
                0x08002b80                HAL_LPTIM_Init
 .text.HAL_LPTIM_DeInit
                0x08002c80       0x44 obj\debug\hal\src\stm32l0xx_hal_lptim.o
                0x08002c80                HAL_LPTIM_DeInit
 .text.HAL_LPTIM_MspInit
                0x08002cc4       0x10 obj\debug\hal\src\stm32l0xx_hal_lptim.o
                0x08002cc4                HAL_LPTIM_MspInit
 .text.HAL_LPTIM_MspDeInit
                0x08002cd4       0x10 obj\debug\hal\src\stm32l0xx_hal_lptim.o
                0x08002cd4                HAL_LPTIM_MspDeInit
 .text.HAL_LPTIM_PWM_Start
                0x08002ce4       0x6c obj\debug\hal\src\stm32l0xx_hal_lptim.o
                0x08002ce4                HAL_LPTIM_PWM_Start
 .text.HAL_LPTIM_PWM_Stop
                0x08002d50       0x2a obj\debug\hal\src\stm32l0xx_hal_lptim.o
                0x08002d50                HAL_LPTIM_PWM_Stop
 *fill*         0x08002d7a        0x2 
 .text.HAL_LPTIM_PWM_Start_IT
                0x08002d7c       0xc8 obj\debug\hal\src\stm32l0xx_hal_lptim.o
                0x08002d7c                HAL_LPTIM_PWM_Start_IT
 .text.HAL_LPTIM_PWM_Stop_IT
                0x08002e44       0x88 obj\debug\hal\src\stm32l0xx_hal_lptim.o
                0x08002e44                HAL_LPTIM_PWM_Stop_IT
 .text.HAL_LPTIM_OnePulse_Start
                0x08002ecc       0x6c obj\debug\hal\src\stm32l0xx_hal_lptim.o
                0x08002ecc                HAL_LPTIM_OnePulse_Start
 .text.HAL_LPTIM_OnePulse_Stop
                0x08002f38       0x2a obj\debug\hal\src\stm32l0xx_hal_lptim.o
                0x08002f38                HAL_LPTIM_OnePulse_Stop
 *fill*         0x08002f62        0x2 
 .text.HAL_LPTIM_OnePulse_Start_IT
                0x08002f64       0xc8 obj\debug\hal\src\stm32l0xx_hal_lptim.o
                0x08002f64                HAL_LPTIM_OnePulse_Start_IT
 .text.HAL_LPTIM_OnePulse_Stop_IT
                0x0800302c       0x88 obj\debug\hal\src\stm32l0xx_hal_lptim.o
                0x0800302c                HAL_LPTIM_OnePulse_Stop_IT
 .text.HAL_LPTIM_SetOnce_Start
                0x080030b4       0x68 obj\debug\hal\src\stm32l0xx_hal_lptim.o
                0x080030b4                HAL_LPTIM_SetOnce_Start
 .text.HAL_LPTIM_SetOnce_Stop
                0x0800311c       0x2a obj\debug\hal\src\stm32l0xx_hal_lptim.o
                0x0800311c                HAL_LPTIM_SetOnce_Stop
 *fill*         0x08003146        0x2 
 .text.HAL_LPTIM_SetOnce_Start_IT
                0x08003148       0xc8 obj\debug\hal\src\stm32l0xx_hal_lptim.o
                0x08003148                HAL_LPTIM_SetOnce_Start_IT
 .text.HAL_LPTIM_SetOnce_Stop_IT
                0x08003210       0x88 obj\debug\hal\src\stm32l0xx_hal_lptim.o
                0x08003210                HAL_LPTIM_SetOnce_Stop_IT
 .text.HAL_LPTIM_Encoder_Start
                0x08003298       0x80 obj\debug\hal\src\stm32l0xx_hal_lptim.o
                0x08003298                HAL_LPTIM_Encoder_Start
 .text.HAL_LPTIM_Encoder_Stop
                0x08003318       0x40 obj\debug\hal\src\stm32l0xx_hal_lptim.o
                0x08003318                HAL_LPTIM_Encoder_Stop
 .text.HAL_LPTIM_Encoder_Start_IT
                0x08003358       0xa0 obj\debug\hal\src\stm32l0xx_hal_lptim.o
                0x08003358                HAL_LPTIM_Encoder_Start_IT
 .text.HAL_LPTIM_Encoder_Stop_IT
                0x080033f8       0x60 obj\debug\hal\src\stm32l0xx_hal_lptim.o
                0x080033f8                HAL_LPTIM_Encoder_Stop_IT
 .text.HAL_LPTIM_TimeOut_Start
                0x08003458       0x68 obj\debug\hal\src\stm32l0xx_hal_lptim.o
                0x08003458                HAL_LPTIM_TimeOut_Start
 .text.HAL_LPTIM_TimeOut_Stop
                0x080034c0       0x40 obj\debug\hal\src\stm32l0xx_hal_lptim.o
                0x080034c0                HAL_LPTIM_TimeOut_Stop
 .text.HAL_LPTIM_TimeOut_Start_IT
                0x08003500       0x8c obj\debug\hal\src\stm32l0xx_hal_lptim.o
                0x08003500                HAL_LPTIM_TimeOut_Start_IT
 .text.HAL_LPTIM_TimeOut_Stop_IT
                0x0800358c       0x64 obj\debug\hal\src\stm32l0xx_hal_lptim.o
                0x0800358c                HAL_LPTIM_TimeOut_Stop_IT
 .text.HAL_LPTIM_Counter_Start
                0x080035f0       0x74 obj\debug\hal\src\stm32l0xx_hal_lptim.o
                0x080035f0                HAL_LPTIM_Counter_Start
 .text.HAL_LPTIM_Counter_Stop
                0x08003664       0x2a obj\debug\hal\src\stm32l0xx_hal_lptim.o
                0x08003664                HAL_LPTIM_Counter_Stop
 *fill*         0x0800368e        0x2 
 .text.HAL_LPTIM_Counter_Start_IT
                0x08003690       0xa8 obj\debug\hal\src\stm32l0xx_hal_lptim.o
                0x08003690                HAL_LPTIM_Counter_Start_IT
 .text.HAL_LPTIM_Counter_Stop_IT
                0x08003738       0x60 obj\debug\hal\src\stm32l0xx_hal_lptim.o
                0x08003738                HAL_LPTIM_Counter_Stop_IT
 .text.HAL_LPTIM_ReadCounter
                0x08003798       0x16 obj\debug\hal\src\stm32l0xx_hal_lptim.o
                0x08003798                HAL_LPTIM_ReadCounter
 .text.HAL_LPTIM_ReadAutoReload
                0x080037ae       0x16 obj\debug\hal\src\stm32l0xx_hal_lptim.o
                0x080037ae                HAL_LPTIM_ReadAutoReload
 .text.HAL_LPTIM_ReadCompare
                0x080037c4       0x16 obj\debug\hal\src\stm32l0xx_hal_lptim.o
                0x080037c4                HAL_LPTIM_ReadCompare
 .text.HAL_LPTIM_IRQHandler
                0x080037da      0x144 obj\debug\hal\src\stm32l0xx_hal_lptim.o
                0x080037da                HAL_LPTIM_IRQHandler
 .text.HAL_LPTIM_CompareMatchCallback
                0x0800391e       0x10 obj\debug\hal\src\stm32l0xx_hal_lptim.o
                0x0800391e                HAL_LPTIM_CompareMatchCallback
 .text.HAL_LPTIM_AutoReloadMatchCallback
                0x0800392e       0x10 obj\debug\hal\src\stm32l0xx_hal_lptim.o
                0x0800392e                HAL_LPTIM_AutoReloadMatchCallback
 .text.HAL_LPTIM_TriggerCallback
                0x0800393e       0x10 obj\debug\hal\src\stm32l0xx_hal_lptim.o
                0x0800393e                HAL_LPTIM_TriggerCallback
 .text.HAL_LPTIM_CompareWriteCallback
                0x0800394e       0x10 obj\debug\hal\src\stm32l0xx_hal_lptim.o
                0x0800394e                HAL_LPTIM_CompareWriteCallback
 .text.HAL_LPTIM_AutoReloadWriteCallback
                0x0800395e       0x10 obj\debug\hal\src\stm32l0xx_hal_lptim.o
                0x0800395e                HAL_LPTIM_AutoReloadWriteCallback
 .text.HAL_LPTIM_DirectionUpCallback
                0x0800396e       0x10 obj\debug\hal\src\stm32l0xx_hal_lptim.o
                0x0800396e                HAL_LPTIM_DirectionUpCallback
 .text.HAL_LPTIM_DirectionDownCallback
                0x0800397e       0x10 obj\debug\hal\src\stm32l0xx_hal_lptim.o
                0x0800397e                HAL_LPTIM_DirectionDownCallback
 .text.HAL_LPTIM_GetState
                0x0800398e       0x18 obj\debug\hal\src\stm32l0xx_hal_lptim.o
                0x0800398e                HAL_LPTIM_GetState
 *fill*         0x080039a6        0x2 
 .text.LPTIM_Disable
                0x080039a8      0x1a4 obj\debug\hal\src\stm32l0xx_hal_lptim.o
                0x080039a8                LPTIM_Disable
 .text.HAL_PWR_DeInit
                0x08003b4c       0x2c obj\debug\hal\src\stm32l0xx_hal_pwr.o
                0x08003b4c                HAL_PWR_DeInit
 .text.HAL_PWR_EnableBkUpAccess
                0x08003b78       0x1c obj\debug\hal\src\stm32l0xx_hal_pwr.o
                0x08003b78                HAL_PWR_EnableBkUpAccess
 .text.HAL_PWR_DisableBkUpAccess
                0x08003b94       0x20 obj\debug\hal\src\stm32l0xx_hal_pwr.o
                0x08003b94                HAL_PWR_DisableBkUpAccess
 .text.HAL_PWR_ConfigPVD
                0x08003bb4       0xc4 obj\debug\hal\src\stm32l0xx_hal_pwr.o
                0x08003bb4                HAL_PWR_ConfigPVD
 .text.HAL_PWR_EnablePVD
                0x08003c78       0x1c obj\debug\hal\src\stm32l0xx_hal_pwr.o
                0x08003c78                HAL_PWR_EnablePVD
 .text.HAL_PWR_DisablePVD
                0x08003c94       0x1c obj\debug\hal\src\stm32l0xx_hal_pwr.o
                0x08003c94                HAL_PWR_DisablePVD
 .text.HAL_PWR_EnableWakeUpPin
                0x08003cb0       0x20 obj\debug\hal\src\stm32l0xx_hal_pwr.o
                0x08003cb0                HAL_PWR_EnableWakeUpPin
 .text.HAL_PWR_DisableWakeUpPin
                0x08003cd0       0x24 obj\debug\hal\src\stm32l0xx_hal_pwr.o
                0x08003cd0                HAL_PWR_DisableWakeUpPin
 .text.HAL_PWR_EnterSLEEPMode
                0x08003cf4       0x60 obj\debug\hal\src\stm32l0xx_hal_pwr.o
                0x08003cf4                HAL_PWR_EnterSLEEPMode
 .text.HAL_PWR_EnterSTOPMode
                0x08003d54       0x68 obj\debug\hal\src\stm32l0xx_hal_pwr.o
                0x08003d54                HAL_PWR_EnterSTOPMode
 .text.HAL_PWR_EnterSTANDBYMode
                0x08003dbc       0x2c obj\debug\hal\src\stm32l0xx_hal_pwr.o
                0x08003dbc                HAL_PWR_EnterSTANDBYMode
 .text.HAL_PWR_EnableSleepOnExit
                0x08003de8       0x1c obj\debug\hal\src\stm32l0xx_hal_pwr.o
                0x08003de8                HAL_PWR_EnableSleepOnExit
 .text.HAL_PWR_DisableSleepOnExit
                0x08003e04       0x1c obj\debug\hal\src\stm32l0xx_hal_pwr.o
                0x08003e04                HAL_PWR_DisableSleepOnExit
 .text.HAL_PWR_EnableSEVOnPend
                0x08003e20       0x1c obj\debug\hal\src\stm32l0xx_hal_pwr.o
                0x08003e20                HAL_PWR_EnableSEVOnPend
 .text.HAL_PWR_DisableSEVOnPend
                0x08003e3c       0x1c obj\debug\hal\src\stm32l0xx_hal_pwr.o
                0x08003e3c                HAL_PWR_DisableSEVOnPend
 .text.HAL_PWR_PVD_IRQHandler
                0x08003e58       0x28 obj\debug\hal\src\stm32l0xx_hal_pwr.o
                0x08003e58                HAL_PWR_PVD_IRQHandler
 .text.HAL_PWR_PVDCallback
                0x08003e80        0xa obj\debug\hal\src\stm32l0xx_hal_pwr.o
                0x08003e80                HAL_PWR_PVDCallback
 *fill*         0x08003e8a        0x2 
 .text.HAL_PWREx_GetVoltageRange
                0x08003e8c       0x18 obj\debug\hal\src\stm32l0xx_hal_pwr_ex.o
                0x08003e8c                HAL_PWREx_GetVoltageRange
 .text.HAL_PWREx_EnableFastWakeUp
                0x08003ea4       0x1c obj\debug\hal\src\stm32l0xx_hal_pwr_ex.o
                0x08003ea4                HAL_PWREx_EnableFastWakeUp
 .text.HAL_PWREx_DisableFastWakeUp
                0x08003ec0       0x20 obj\debug\hal\src\stm32l0xx_hal_pwr_ex.o
                0x08003ec0                HAL_PWREx_DisableFastWakeUp
 .text.HAL_PWREx_EnableUltraLowPower
                0x08003ee0       0x1c obj\debug\hal\src\stm32l0xx_hal_pwr_ex.o
                0x08003ee0                HAL_PWREx_EnableUltraLowPower
 .text.HAL_PWREx_DisableUltraLowPower
                0x08003efc       0x20 obj\debug\hal\src\stm32l0xx_hal_pwr_ex.o
                0x08003efc                HAL_PWREx_DisableUltraLowPower
 .text.HAL_PWREx_EnableLowPowerRunMode
                0x08003f1c       0x28 obj\debug\hal\src\stm32l0xx_hal_pwr_ex.o
                0x08003f1c                HAL_PWREx_EnableLowPowerRunMode
 .text.HAL_PWREx_DisableLowPowerRunMode
                0x08003f44       0x7c obj\debug\hal\src\stm32l0xx_hal_pwr_ex.o
                0x08003f44                HAL_PWREx_DisableLowPowerRunMode
 .text.HAL_RCC_DeInit
                0x08003fc0      0x148 obj\debug\hal\src\stm32l0xx_hal_rcc.o
                0x08003fc0                HAL_RCC_DeInit
 .text.HAL_RCC_OscConfig
                0x08004108      0x780 obj\debug\hal\src\stm32l0xx_hal_rcc.o
                0x08004108                HAL_RCC_OscConfig
 .text.HAL_RCC_ClockConfig
                0x08004888      0x254 obj\debug\hal\src\stm32l0xx_hal_rcc.o
                0x08004888                HAL_RCC_ClockConfig
 .text.HAL_RCC_MCOConfig
                0x08004adc       0xc8 obj\debug\hal\src\stm32l0xx_hal_rcc.o
                0x08004adc                HAL_RCC_MCOConfig
 .text.HAL_RCC_EnableCSS
                0x08004ba4       0x1c obj\debug\hal\src\stm32l0xx_hal_rcc.o
                0x08004ba4                HAL_RCC_EnableCSS
 .text.HAL_RCC_GetSysClockFreq
                0x08004bc0      0x10c obj\debug\hal\src\stm32l0xx_hal_rcc.o
                0x08004bc0                HAL_RCC_GetSysClockFreq
 .text.HAL_RCC_GetHCLKFreq
                0x08004ccc       0x14 obj\debug\hal\src\stm32l0xx_hal_rcc.o
                0x08004ccc                HAL_RCC_GetHCLKFreq
 .text.HAL_RCC_GetPCLK1Freq
                0x08004ce0       0x2c obj\debug\hal\src\stm32l0xx_hal_rcc.o
                0x08004ce0                HAL_RCC_GetPCLK1Freq
 .text.HAL_RCC_GetPCLK2Freq
                0x08004d0c       0x2c obj\debug\hal\src\stm32l0xx_hal_rcc.o
                0x08004d0c                HAL_RCC_GetPCLK2Freq
 .text.HAL_RCC_GetOscConfig
                0x08004d38      0x180 obj\debug\hal\src\stm32l0xx_hal_rcc.o
                0x08004d38                HAL_RCC_GetOscConfig
 .text.HAL_RCC_GetClockConfig
                0x08004eb8       0x64 obj\debug\hal\src\stm32l0xx_hal_rcc.o
                0x08004eb8                HAL_RCC_GetClockConfig
 .text.HAL_RCC_NMI_IRQHandler
                0x08004f1c       0x2c obj\debug\hal\src\stm32l0xx_hal_rcc.o
                0x08004f1c                HAL_RCC_NMI_IRQHandler
 .text.HAL_RCC_CSSCallback
                0x08004f48        0xa obj\debug\hal\src\stm32l0xx_hal_rcc.o
                0x08004f48                HAL_RCC_CSSCallback
 *fill*         0x08004f52        0x2 
 .text.HAL_RCCEx_PeriphCLKConfig
                0x08004f54      0x2c4 obj\debug\hal\src\stm32l0xx_hal_rcc_ex.o
                0x08004f54                HAL_RCCEx_PeriphCLKConfig
 .text.HAL_RCCEx_GetPeriphCLKConfig
                0x08005218       0xd8 obj\debug\hal\src\stm32l0xx_hal_rcc_ex.o
                0x08005218                HAL_RCCEx_GetPeriphCLKConfig
 .text.HAL_RCCEx_GetPeriphCLKFreq
                0x080052f0      0x41c obj\debug\hal\src\stm32l0xx_hal_rcc_ex.o
                0x080052f0                HAL_RCCEx_GetPeriphCLKFreq
 .text.HAL_RCCEx_EnableLSECSS
                0x0800570c       0x1c obj\debug\hal\src\stm32l0xx_hal_rcc_ex.o
                0x0800570c                HAL_RCCEx_EnableLSECSS
 .text.HAL_RCCEx_DisableLSECSS
                0x08005728       0x2c obj\debug\hal\src\stm32l0xx_hal_rcc_ex.o
                0x08005728                HAL_RCCEx_DisableLSECSS
 .text.HAL_RCCEx_EnableLSECSS_IT
                0x08005754       0x48 obj\debug\hal\src\stm32l0xx_hal_rcc_ex.o
                0x08005754                HAL_RCCEx_EnableLSECSS_IT
 .text.HAL_RCCEx_LSECSS_IRQHandler
                0x0800579c       0x24 obj\debug\hal\src\stm32l0xx_hal_rcc_ex.o
                0x0800579c                HAL_RCCEx_LSECSS_IRQHandler
 .text.HAL_RCCEx_LSECSS_Callback
                0x080057c0        0xa obj\debug\hal\src\stm32l0xx_hal_rcc_ex.o
                0x080057c0                HAL_RCCEx_LSECSS_Callback
 *fill*         0x080057ca        0x2 
 .text.HAL_RCCEx_EnableHSI48_VREFINT
                0x080057cc       0x1c obj\debug\hal\src\stm32l0xx_hal_rcc_ex.o
                0x080057cc                HAL_RCCEx_EnableHSI48_VREFINT
 .text.HAL_RCCEx_DisableHSI48_VREFINT
                0x080057e8       0x20 obj\debug\hal\src\stm32l0xx_hal_rcc_ex.o
                0x080057e8                HAL_RCCEx_DisableHSI48_VREFINT
 .text.HAL_RCCEx_CRSConfig
                0x08005808       0x8c obj\debug\hal\src\stm32l0xx_hal_rcc_ex.o
                0x08005808                HAL_RCCEx_CRSConfig
 .text.HAL_RCCEx_CRSSoftwareSynchronizationGenerate
                0x08005894       0x1c obj\debug\hal\src\stm32l0xx_hal_rcc_ex.o
                0x08005894                HAL_RCCEx_CRSSoftwareSynchronizationGenerate
 .text.HAL_RCCEx_CRSGetSynchronizationInfo
                0x080058b0       0x4c obj\debug\hal\src\stm32l0xx_hal_rcc_ex.o
                0x080058b0                HAL_RCCEx_CRSGetSynchronizationInfo
 .text.HAL_RCCEx_CRSWaitSynchronization
                0x080058fc       0xf0 obj\debug\hal\src\stm32l0xx_hal_rcc_ex.o
                0x080058fc                HAL_RCCEx_CRSWaitSynchronization
 .text.HAL_RCCEx_CRS_IRQHandler
                0x080059ec       0xcc obj\debug\hal\src\stm32l0xx_hal_rcc_ex.o
                0x080059ec                HAL_RCCEx_CRS_IRQHandler
 .text.HAL_RCCEx_CRS_SyncOkCallback
                0x08005ab8        0xa obj\debug\hal\src\stm32l0xx_hal_rcc_ex.o
                0x08005ab8                HAL_RCCEx_CRS_SyncOkCallback
 .text.HAL_RCCEx_CRS_SyncWarnCallback
                0x08005ac2        0xa obj\debug\hal\src\stm32l0xx_hal_rcc_ex.o
                0x08005ac2                HAL_RCCEx_CRS_SyncWarnCallback
 .text.HAL_RCCEx_CRS_ExpectedSyncCallback
                0x08005acc        0xa obj\debug\hal\src\stm32l0xx_hal_rcc_ex.o
                0x08005acc                HAL_RCCEx_CRS_ExpectedSyncCallback
 .text.HAL_RCCEx_CRS_ErrorCallback
                0x08005ad6       0x10 obj\debug\hal\src\stm32l0xx_hal_rcc_ex.o
                0x08005ad6                HAL_RCCEx_CRS_ErrorCallback
 *fill*         0x08005ae6        0x2 
 .text.HAL_RTC_Init
                0x08005ae8      0x13c obj\debug\hal\src\stm32l0xx_hal_rtc.o
                0x08005ae8                HAL_RTC_Init
 .text.HAL_RTC_DeInit
                0x08005c24      0x164 obj\debug\hal\src\stm32l0xx_hal_rtc.o
                0x08005c24                HAL_RTC_DeInit
 .text.HAL_RTC_MspInit
                0x08005d88       0x10 obj\debug\hal\src\stm32l0xx_hal_rtc.o
                0x08005d88                HAL_RTC_MspInit
 .text.HAL_RTC_MspDeInit
                0x08005d98       0x10 obj\debug\hal\src\stm32l0xx_hal_rtc.o
                0x08005d98                HAL_RTC_MspDeInit
 .text.HAL_RTC_SetTime
                0x08005da8      0x188 obj\debug\hal\src\stm32l0xx_hal_rtc.o
                0x08005da8                HAL_RTC_SetTime
 .text.HAL_RTC_GetTime
                0x08005f30       0xb8 obj\debug\hal\src\stm32l0xx_hal_rtc.o
                0x08005f30                HAL_RTC_GetTime
 .text.HAL_RTC_SetDate
                0x08005fe8      0x15c obj\debug\hal\src\stm32l0xx_hal_rtc.o
                0x08005fe8                HAL_RTC_SetDate
 .text.HAL_RTC_GetDate
                0x08006144       0x9c obj\debug\hal\src\stm32l0xx_hal_rtc.o
                0x08006144                HAL_RTC_GetDate
 .text.HAL_RTC_SetAlarm
                0x080061e0      0x24c obj\debug\hal\src\stm32l0xx_hal_rtc.o
                0x080061e0                HAL_RTC_SetAlarm
 .text.HAL_RTC_SetAlarm_IT
                0x0800642c      0x298 obj\debug\hal\src\stm32l0xx_hal_rtc.o
                0x0800642c                HAL_RTC_SetAlarm_IT
 .text.HAL_RTC_DeactivateAlarm
                0x080066c4      0x140 obj\debug\hal\src\stm32l0xx_hal_rtc.o
                0x080066c4                HAL_RTC_DeactivateAlarm
 .text.HAL_RTC_GetAlarm
                0x08006804      0x18c obj\debug\hal\src\stm32l0xx_hal_rtc.o
                0x08006804                HAL_RTC_GetAlarm
 .text.HAL_RTC_AlarmIRQHandler
                0x08006990       0x9c obj\debug\hal\src\stm32l0xx_hal_rtc.o
                0x08006990                HAL_RTC_AlarmIRQHandler
 .text.HAL_RTC_AlarmAEventCallback
                0x08006a2c       0x10 obj\debug\hal\src\stm32l0xx_hal_rtc.o
                0x08006a2c                HAL_RTC_AlarmAEventCallback
 .text.HAL_RTC_PollForAlarmAEvent
                0x08006a3c       0x74 obj\debug\hal\src\stm32l0xx_hal_rtc.o
                0x08006a3c                HAL_RTC_PollForAlarmAEvent
 .text.HAL_RTC_WaitForSynchro
                0x08006ab0       0x4e obj\debug\hal\src\stm32l0xx_hal_rtc.o
                0x08006ab0                HAL_RTC_WaitForSynchro
 .text.HAL_RTC_GetState
                0x08006afe       0x18 obj\debug\hal\src\stm32l0xx_hal_rtc.o
                0x08006afe                HAL_RTC_GetState
 .text.RTC_EnterInitMode
                0x08006b16       0x54 obj\debug\hal\src\stm32l0xx_hal_rtc.o
                0x08006b16                RTC_EnterInitMode
 .text.RTC_ByteToBcd2
                0x08006b6a       0x50 obj\debug\hal\src\stm32l0xx_hal_rtc.o
                0x08006b6a                RTC_ByteToBcd2
 .text.RTC_Bcd2ToByte
                0x08006bba       0x3a obj\debug\hal\src\stm32l0xx_hal_rtc.o
                0x08006bba                RTC_Bcd2ToByte
 .text.HAL_RTCEx_SetTimeStamp
                0x08006bf4       0xc0 obj\debug\hal\src\stm32l0xx_hal_rtc_ex.o
                0x08006bf4                HAL_RTCEx_SetTimeStamp
 .text.HAL_RTCEx_SetTimeStamp_IT
                0x08006cb4       0xf0 obj\debug\hal\src\stm32l0xx_hal_rtc_ex.o
                0x08006cb4                HAL_RTCEx_SetTimeStamp_IT
 .text.HAL_RTCEx_DeactivateTimeStamp
                0x08006da4       0x84 obj\debug\hal\src\stm32l0xx_hal_rtc_ex.o
                0x08006da4                HAL_RTCEx_DeactivateTimeStamp
 .text.HAL_RTCEx_GetTimeStamp
                0x08006e28      0x140 obj\debug\hal\src\stm32l0xx_hal_rtc_ex.o
                0x08006e28                HAL_RTCEx_GetTimeStamp
 .text.HAL_RTCEx_SetTamper
                0x08006f68      0x13c obj\debug\hal\src\stm32l0xx_hal_rtc_ex.o
                0x08006f68                HAL_RTCEx_SetTamper
 .text.HAL_RTCEx_SetTamper_IT
                0x080070a4      0x160 obj\debug\hal\src\stm32l0xx_hal_rtc_ex.o
                0x080070a4                HAL_RTCEx_SetTamper_IT
 .text.HAL_RTCEx_DeactivateTamper
                0x08007204       0x8c obj\debug\hal\src\stm32l0xx_hal_rtc_ex.o
                0x08007204                HAL_RTCEx_DeactivateTamper
 .text.HAL_RTCEx_TamperTimeStampIRQHandler
                0x08007290       0xdc obj\debug\hal\src\stm32l0xx_hal_rtc_ex.o
                0x08007290                HAL_RTCEx_TamperTimeStampIRQHandler
 .text.HAL_RTCEx_TimeStampEventCallback
                0x0800736c       0x10 obj\debug\hal\src\stm32l0xx_hal_rtc_ex.o
                0x0800736c                HAL_RTCEx_TimeStampEventCallback
 .text.HAL_RTCEx_Tamper1EventCallback
                0x0800737c       0x10 obj\debug\hal\src\stm32l0xx_hal_rtc_ex.o
                0x0800737c                HAL_RTCEx_Tamper1EventCallback
 .text.HAL_RTCEx_Tamper2EventCallback
                0x0800738c       0x10 obj\debug\hal\src\stm32l0xx_hal_rtc_ex.o
                0x0800738c                HAL_RTCEx_Tamper2EventCallback
 .text.HAL_RTCEx_PollForTimeStampEvent
                0x0800739c       0x90 obj\debug\hal\src\stm32l0xx_hal_rtc_ex.o
                0x0800739c                HAL_RTCEx_PollForTimeStampEvent
 .text.HAL_RTCEx_PollForTamper1Event
                0x0800742c       0x74 obj\debug\hal\src\stm32l0xx_hal_rtc_ex.o
                0x0800742c                HAL_RTCEx_PollForTamper1Event
 .text.HAL_RTCEx_PollForTamper2Event
                0x080074a0       0x74 obj\debug\hal\src\stm32l0xx_hal_rtc_ex.o
                0x080074a0                HAL_RTCEx_PollForTamper2Event
 .text.HAL_RTCEx_SetWakeUpTimer
                0x08007514      0x140 obj\debug\hal\src\stm32l0xx_hal_rtc_ex.o
                0x08007514                HAL_RTCEx_SetWakeUpTimer
 .text.HAL_RTCEx_SetWakeUpTimer_IT
                0x08007654      0x18c obj\debug\hal\src\stm32l0xx_hal_rtc_ex.o
                0x08007654                HAL_RTCEx_SetWakeUpTimer_IT
 .text.HAL_RTCEx_DeactivateWakeUpTimer
                0x080077e0       0xc4 obj\debug\hal\src\stm32l0xx_hal_rtc_ex.o
                0x080077e0                HAL_RTCEx_DeactivateWakeUpTimer
 .text.HAL_RTCEx_GetWakeUpTimer
                0x080078a4       0x1a obj\debug\hal\src\stm32l0xx_hal_rtc_ex.o
                0x080078a4                HAL_RTCEx_GetWakeUpTimer
 *fill*         0x080078be        0x2 
 .text.HAL_RTCEx_WakeUpTimerIRQHandler
                0x080078c0       0x54 obj\debug\hal\src\stm32l0xx_hal_rtc_ex.o
                0x080078c0                HAL_RTCEx_WakeUpTimerIRQHandler
 .text.HAL_RTCEx_WakeUpTimerEventCallback
                0x08007914       0x10 obj\debug\hal\src\stm32l0xx_hal_rtc_ex.o
                0x08007914                HAL_RTCEx_WakeUpTimerEventCallback
 .text.HAL_RTCEx_PollForWakeUpTimerEvent
                0x08007924       0x74 obj\debug\hal\src\stm32l0xx_hal_rtc_ex.o
                0x08007924                HAL_RTCEx_PollForWakeUpTimerEvent
 .text.HAL_RTCEx_BKUPWrite
                0x08007998       0x2c obj\debug\hal\src\stm32l0xx_hal_rtc_ex.o
                0x08007998                HAL_RTCEx_BKUPWrite
 .text.HAL_RTCEx_BKUPRead
                0x080079c4       0x28 obj\debug\hal\src\stm32l0xx_hal_rtc_ex.o
                0x080079c4                HAL_RTCEx_BKUPRead
 .text.HAL_RTCEx_SetSmoothCalib
                0x080079ec       0xc4 obj\debug\hal\src\stm32l0xx_hal_rtc_ex.o
                0x080079ec                HAL_RTCEx_SetSmoothCalib
 .text.HAL_RTCEx_SetSynchroShift
                0x08007ab0      0x108 obj\debug\hal\src\stm32l0xx_hal_rtc_ex.o
                0x08007ab0                HAL_RTCEx_SetSynchroShift
 .text.HAL_RTCEx_SetCalibrationOutPut
                0x08007bb8       0x90 obj\debug\hal\src\stm32l0xx_hal_rtc_ex.o
                0x08007bb8                HAL_RTCEx_SetCalibrationOutPut
 .text.HAL_RTCEx_DeactivateCalibrationOutPut
                0x08007c48       0x6c obj\debug\hal\src\stm32l0xx_hal_rtc_ex.o
                0x08007c48                HAL_RTCEx_DeactivateCalibrationOutPut
 .text.HAL_RTCEx_SetRefClock
                0x08007cb4       0xa0 obj\debug\hal\src\stm32l0xx_hal_rtc_ex.o
                0x08007cb4                HAL_RTCEx_SetRefClock
 .text.HAL_RTCEx_DeactivateRefClock
                0x08007d54       0xa0 obj\debug\hal\src\stm32l0xx_hal_rtc_ex.o
                0x08007d54                HAL_RTCEx_DeactivateRefClock
 .text.HAL_RTCEx_EnableBypassShadow
                0x08007df4       0x68 obj\debug\hal\src\stm32l0xx_hal_rtc_ex.o
                0x08007df4                HAL_RTCEx_EnableBypassShadow
 .text.HAL_RTCEx_DisableBypassShadow
                0x08007e5c       0x68 obj\debug\hal\src\stm32l0xx_hal_rtc_ex.o
                0x08007e5c                HAL_RTCEx_DisableBypassShadow
 .text.HAL_RTCEx_AlarmBEventCallback
                0x08007ec4       0x10 obj\debug\hal\src\stm32l0xx_hal_rtc_ex.o
                0x08007ec4                HAL_RTCEx_AlarmBEventCallback
 .text.HAL_RTCEx_PollForAlarmBEvent
                0x08007ed4       0x74 obj\debug\hal\src\stm32l0xx_hal_rtc_ex.o
                0x08007ed4                HAL_RTCEx_PollForAlarmBEvent
 .text.HAL_TIM_Base_Init
                0x08007f48       0x58 obj\debug\hal\src\stm32l0xx_hal_tim.o
                0x08007f48                HAL_TIM_Base_Init
 .text.HAL_TIM_Base_DeInit
                0x08007fa0       0x54 obj\debug\hal\src\stm32l0xx_hal_tim.o
                0x08007fa0                HAL_TIM_Base_DeInit
 .text.HAL_TIM_Base_MspInit
                0x08007ff4       0x10 obj\debug\hal\src\stm32l0xx_hal_tim.o
                0x08007ff4                HAL_TIM_Base_MspInit
 .text.HAL_TIM_Base_MspDeInit
                0x08008004       0x10 obj\debug\hal\src\stm32l0xx_hal_tim.o
                0x08008004                HAL_TIM_Base_MspDeInit
 .text.HAL_TIM_Base_Start
                0x08008014       0x44 obj\debug\hal\src\stm32l0xx_hal_tim.o
                0x08008014                HAL_TIM_Base_Start
 .text.HAL_TIM_Base_Stop
                0x08008058       0x44 obj\debug\hal\src\stm32l0xx_hal_tim.o
                0x08008058                HAL_TIM_Base_Stop
 .text.HAL_TIM_Base_Start_IT
                0x0800809c       0x44 obj\debug\hal\src\stm32l0xx_hal_tim.o
                0x0800809c                HAL_TIM_Base_Start_IT
 .text.HAL_TIM_Base_Stop_IT
                0x080080e0       0x44 obj\debug\hal\src\stm32l0xx_hal_tim.o
                0x080080e0                HAL_TIM_Base_Stop_IT
 .text.HAL_TIM_Base_Start_DMA
                0x08008124       0xc4 obj\debug\hal\src\stm32l0xx_hal_tim.o
                0x08008124                HAL_TIM_Base_Start_DMA
 .text.HAL_TIM_Base_Stop_DMA
                0x080081e8       0x58 obj\debug\hal\src\stm32l0xx_hal_tim.o
                0x080081e8                HAL_TIM_Base_Stop_DMA
 .text.HAL_TIM_OC_Init
                0x08008240       0x58 obj\debug\hal\src\stm32l0xx_hal_tim.o
                0x08008240                HAL_TIM_OC_Init
 .text.HAL_TIM_OC_DeInit
                0x08008298       0x54 obj\debug\hal\src\stm32l0xx_hal_tim.o
                0x08008298                HAL_TIM_OC_DeInit
 .text.HAL_TIM_OC_MspInit
                0x080082ec       0x10 obj\debug\hal\src\stm32l0xx_hal_tim.o
                0x080082ec                HAL_TIM_OC_MspInit
 .text.HAL_TIM_OC_MspDeInit
                0x080082fc       0x10 obj\debug\hal\src\stm32l0xx_hal_tim.o
                0x080082fc                HAL_TIM_OC_MspDeInit
 .text.HAL_TIM_OC_Start
                0x0800830c       0x44 obj\debug\hal\src\stm32l0xx_hal_tim.o
                0x0800830c                HAL_TIM_OC_Start
 .text.HAL_TIM_OC_Stop
                0x08008350       0x44 obj\debug\hal\src\stm32l0xx_hal_tim.o
                0x08008350                HAL_TIM_OC_Stop
 .text.HAL_TIM_OC_Start_IT
                0x08008394       0xb4 obj\debug\hal\src\stm32l0xx_hal_tim.o
                0x08008394                HAL_TIM_OC_Start_IT
 .text.HAL_TIM_OC_Stop_IT
                0x08008448       0xb4 obj\debug\hal\src\stm32l0xx_hal_tim.o
                0x08008448                HAL_TIM_OC_Stop_IT
 .text.HAL_TIM_OC_Start_DMA
                0x080084fc      0x1e4 obj\debug\hal\src\stm32l0xx_hal_tim.o
                0x080084fc                HAL_TIM_OC_Start_DMA
 .text.HAL_TIM_OC_Stop_DMA
                0x080086e0       0xf4 obj\debug\hal\src\stm32l0xx_hal_tim.o
                0x080086e0                HAL_TIM_OC_Stop_DMA
 .text.HAL_TIM_PWM_Init
                0x080087d4       0x58 obj\debug\hal\src\stm32l0xx_hal_tim.o
                0x080087d4                HAL_TIM_PWM_Init
 .text.HAL_TIM_PWM_DeInit
                0x0800882c       0x54 obj\debug\hal\src\stm32l0xx_hal_tim.o
                0x0800882c                HAL_TIM_PWM_DeInit
 .text.HAL_TIM_PWM_MspInit
                0x08008880       0x10 obj\debug\hal\src\stm32l0xx_hal_tim.o
                0x08008880                HAL_TIM_PWM_MspInit
 .text.HAL_TIM_PWM_MspDeInit
                0x08008890       0x10 obj\debug\hal\src\stm32l0xx_hal_tim.o
                0x08008890                HAL_TIM_PWM_MspDeInit
 .text.HAL_TIM_PWM_Start
                0x080088a0       0x44 obj\debug\hal\src\stm32l0xx_hal_tim.o
                0x080088a0                HAL_TIM_PWM_Start
 .text.HAL_TIM_PWM_Stop
                0x080088e4       0x4c obj\debug\hal\src\stm32l0xx_hal_tim.o
                0x080088e4                HAL_TIM_PWM_Stop
 .text.HAL_TIM_PWM_Start_IT
                0x08008930       0xb4 obj\debug\hal\src\stm32l0xx_hal_tim.o
                0x08008930                HAL_TIM_PWM_Start_IT
 .text.HAL_TIM_PWM_Stop_IT
                0x080089e4       0xb4 obj\debug\hal\src\stm32l0xx_hal_tim.o
                0x080089e4                HAL_TIM_PWM_Stop_IT
 .text.HAL_TIM_PWM_Start_DMA
                0x08008a98      0x1e4 obj\debug\hal\src\stm32l0xx_hal_tim.o
                0x08008a98                HAL_TIM_PWM_Start_DMA
 .text.HAL_TIM_PWM_Stop_DMA
                0x08008c7c       0xf4 obj\debug\hal\src\stm32l0xx_hal_tim.o
                0x08008c7c                HAL_TIM_PWM_Stop_DMA
 .text.HAL_TIM_IC_Init
                0x08008d70       0x58 obj\debug\hal\src\stm32l0xx_hal_tim.o
                0x08008d70                HAL_TIM_IC_Init
 .text.HAL_TIM_IC_DeInit
                0x08008dc8       0x54 obj\debug\hal\src\stm32l0xx_hal_tim.o
                0x08008dc8                HAL_TIM_IC_DeInit
 .text.HAL_TIM_IC_MspInit
                0x08008e1c       0x10 obj\debug\hal\src\stm32l0xx_hal_tim.o
                0x08008e1c                HAL_TIM_IC_MspInit
 .text.HAL_TIM_IC_MspDeInit
                0x08008e2c       0x10 obj\debug\hal\src\stm32l0xx_hal_tim.o
                0x08008e2c                HAL_TIM_IC_MspDeInit
 .text.HAL_TIM_IC_Start
                0x08008e3c       0x44 obj\debug\hal\src\stm32l0xx_hal_tim.o
                0x08008e3c                HAL_TIM_IC_Start
 .text.HAL_TIM_IC_Stop
                0x08008e80       0x44 obj\debug\hal\src\stm32l0xx_hal_tim.o
                0x08008e80                HAL_TIM_IC_Stop
 .text.HAL_TIM_IC_Start_IT
                0x08008ec4       0xb4 obj\debug\hal\src\stm32l0xx_hal_tim.o
                0x08008ec4                HAL_TIM_IC_Start_IT
 .text.HAL_TIM_IC_Stop_IT
                0x08008f78       0xb4 obj\debug\hal\src\stm32l0xx_hal_tim.o
                0x08008f78                HAL_TIM_IC_Stop_IT
 .text.HAL_TIM_IC_Start_DMA
                0x0800902c      0x1e4 obj\debug\hal\src\stm32l0xx_hal_tim.o
                0x0800902c                HAL_TIM_IC_Start_DMA
 .text.HAL_TIM_IC_Stop_DMA
                0x08009210       0xf4 obj\debug\hal\src\stm32l0xx_hal_tim.o
                0x08009210                HAL_TIM_IC_Stop_DMA
 .text.HAL_TIM_OnePulse_Init
                0x08009304       0x7a obj\debug\hal\src\stm32l0xx_hal_tim.o
                0x08009304                HAL_TIM_OnePulse_Init
 *fill*         0x0800937e        0x2 
 .text.HAL_TIM_OnePulse_DeInit
                0x08009380       0x54 obj\debug\hal\src\stm32l0xx_hal_tim.o
                0x08009380                HAL_TIM_OnePulse_DeInit
 .text.HAL_TIM_OnePulse_MspInit
                0x080093d4       0x10 obj\debug\hal\src\stm32l0xx_hal_tim.o
                0x080093d4                HAL_TIM_OnePulse_MspInit
 .text.HAL_TIM_OnePulse_MspDeInit
                0x080093e4       0x10 obj\debug\hal\src\stm32l0xx_hal_tim.o
                0x080093e4                HAL_TIM_OnePulse_MspDeInit
 .text.HAL_TIM_OnePulse_Start
                0x080093f4       0x30 obj\debug\hal\src\stm32l0xx_hal_tim.o
                0x080093f4                HAL_TIM_OnePulse_Start
 .text.HAL_TIM_OnePulse_Stop
                0x08009424       0x50 obj\debug\hal\src\stm32l0xx_hal_tim.o
                0x08009424                HAL_TIM_OnePulse_Stop
 .text.HAL_TIM_OnePulse_Start_IT
                0x08009474       0x50 obj\debug\hal\src\stm32l0xx_hal_tim.o
                0x08009474                HAL_TIM_OnePulse_Start_IT
 .text.HAL_TIM_OnePulse_Stop_IT
                0x080094c4       0x70 obj\debug\hal\src\stm32l0xx_hal_tim.o
                0x080094c4                HAL_TIM_OnePulse_Stop_IT
 .text.HAL_TIM_Encoder_Init
                0x08009534      0x128 obj\debug\hal\src\stm32l0xx_hal_tim.o
                0x08009534                HAL_TIM_Encoder_Init
 .text.HAL_TIM_Encoder_DeInit
                0x0800965c       0x54 obj\debug\hal\src\stm32l0xx_hal_tim.o
                0x0800965c                HAL_TIM_Encoder_DeInit
 .text.HAL_TIM_Encoder_MspInit
                0x080096b0       0x10 obj\debug\hal\src\stm32l0xx_hal_tim.o
                0x080096b0                HAL_TIM_Encoder_MspInit
 .text.HAL_TIM_Encoder_MspDeInit
                0x080096c0       0x10 obj\debug\hal\src\stm32l0xx_hal_tim.o
                0x080096c0                HAL_TIM_Encoder_MspDeInit
 .text.HAL_TIM_Encoder_Start
                0x080096d0       0x70 obj\debug\hal\src\stm32l0xx_hal_tim.o
                0x080096d0                HAL_TIM_Encoder_Start
 .text.HAL_TIM_Encoder_Stop
                0x08009740       0x80 obj\debug\hal\src\stm32l0xx_hal_tim.o
                0x08009740                HAL_TIM_Encoder_Stop
 .text.HAL_TIM_Encoder_Start_IT
                0x080097c0       0xb0 obj\debug\hal\src\stm32l0xx_hal_tim.o
                0x080097c0                HAL_TIM_Encoder_Start_IT
 .text.HAL_TIM_Encoder_Stop_IT
                0x08009870       0xc4 obj\debug\hal\src\stm32l0xx_hal_tim.o
                0x08009870                HAL_TIM_Encoder_Stop_IT
 .text.HAL_TIM_Encoder_Start_DMA
                0x08009934      0x218 obj\debug\hal\src\stm32l0xx_hal_tim.o
                0x08009934                HAL_TIM_Encoder_Start_DMA
 .text.HAL_TIM_Encoder_Stop_DMA
                0x08009b4c       0xf4 obj\debug\hal\src\stm32l0xx_hal_tim.o
                0x08009b4c                HAL_TIM_Encoder_Stop_DMA
 .text.HAL_TIM_IRQHandler
                0x08009c40      0x1d0 obj\debug\hal\src\stm32l0xx_hal_tim.o
                0x08009c40                HAL_TIM_IRQHandler
 .text.HAL_TIM_OC_ConfigChannel
                0x08009e10       0xac obj\debug\hal\src\stm32l0xx_hal_tim.o
                0x08009e10                HAL_TIM_OC_ConfigChannel
 .text.HAL_TIM_IC_ConfigChannel
                0x08009ebc      0x13c obj\debug\hal\src\stm32l0xx_hal_tim.o
                0x08009ebc                HAL_TIM_IC_ConfigChannel
 .text.HAL_TIM_PWM_ConfigChannel
                0x08009ff8      0x188 obj\debug\hal\src\stm32l0xx_hal_tim.o
                0x08009ff8                HAL_TIM_PWM_ConfigChannel
 .text.HAL_TIM_OnePulse_ConfigChannel
                0x0800a180      0x180 obj\debug\hal\src\stm32l0xx_hal_tim.o
                0x0800a180                HAL_TIM_OnePulse_ConfigChannel
 .text.HAL_TIM_DMABurst_WriteStart
                0x0800a300      0x270 obj\debug\hal\src\stm32l0xx_hal_tim.o
                0x0800a300                HAL_TIM_DMABurst_WriteStart
 .text.HAL_TIM_DMABurst_WriteStop
                0x0800a570      0x11c obj\debug\hal\src\stm32l0xx_hal_tim.o
                0x0800a570                HAL_TIM_DMABurst_WriteStop
 .text.HAL_TIM_DMABurst_ReadStart
                0x0800a68c      0x270 obj\debug\hal\src\stm32l0xx_hal_tim.o
                0x0800a68c                HAL_TIM_DMABurst_ReadStart
 .text.HAL_TIM_DMABurst_ReadStop
                0x0800a8fc      0x11c obj\debug\hal\src\stm32l0xx_hal_tim.o
                0x0800a8fc                HAL_TIM_DMABurst_ReadStop
 .text.HAL_TIM_GenerateEvent
                0x0800aa18       0x4a obj\debug\hal\src\stm32l0xx_hal_tim.o
                0x0800aa18                HAL_TIM_GenerateEvent
 *fill*         0x0800aa62        0x2 
 .text.HAL_TIM_ConfigOCrefClear
                0x0800aa64      0x17c obj\debug\hal\src\stm32l0xx_hal_tim.o
                0x0800aa64                HAL_TIM_ConfigOCrefClear
 .text.HAL_TIM_ConfigClockSource
                0x0800abe0      0x194 obj\debug\hal\src\stm32l0xx_hal_tim.o
                0x0800abe0                HAL_TIM_ConfigClockSource
 .text.HAL_TIM_ConfigTI1Input
                0x0800ad74       0x34 obj\debug\hal\src\stm32l0xx_hal_tim.o
                0x0800ad74                HAL_TIM_ConfigTI1Input
 .text.HAL_TIM_SlaveConfigSynchro
                0x0800ada8       0x8c obj\debug\hal\src\stm32l0xx_hal_tim.o
                0x0800ada8                HAL_TIM_SlaveConfigSynchro
 .text.HAL_TIM_SlaveConfigSynchro_IT
                0x0800ae34       0x8c obj\debug\hal\src\stm32l0xx_hal_tim.o
                0x0800ae34                HAL_TIM_SlaveConfigSynchro_IT
 .text.HAL_TIM_ReadCapturedValue
                0x0800aec0       0x68 obj\debug\hal\src\stm32l0xx_hal_tim.o
                0x0800aec0                HAL_TIM_ReadCapturedValue
 .text.HAL_TIM_PeriodElapsedCallback
                0x0800af28       0x10 obj\debug\hal\src\stm32l0xx_hal_tim.o
                0x0800af28                HAL_TIM_PeriodElapsedCallback
 .text.HAL_TIM_PeriodElapsedHalfCpltCallback
                0x0800af38       0x10 obj\debug\hal\src\stm32l0xx_hal_tim.o
                0x0800af38                HAL_TIM_PeriodElapsedHalfCpltCallback
 .text.HAL_TIM_OC_DelayElapsedCallback
                0x0800af48       0x10 obj\debug\hal\src\stm32l0xx_hal_tim.o
                0x0800af48                HAL_TIM_OC_DelayElapsedCallback
 .text.HAL_TIM_IC_CaptureCallback
                0x0800af58       0x10 obj\debug\hal\src\stm32l0xx_hal_tim.o
                0x0800af58                HAL_TIM_IC_CaptureCallback
 .text.HAL_TIM_IC_CaptureHalfCpltCallback
                0x0800af68       0x10 obj\debug\hal\src\stm32l0xx_hal_tim.o
                0x0800af68                HAL_TIM_IC_CaptureHalfCpltCallback
 .text.HAL_TIM_PWM_PulseFinishedCallback
                0x0800af78       0x10 obj\debug\hal\src\stm32l0xx_hal_tim.o
                0x0800af78                HAL_TIM_PWM_PulseFinishedCallback
 .text.HAL_TIM_PWM_PulseFinishedHalfCpltCallback
                0x0800af88       0x10 obj\debug\hal\src\stm32l0xx_hal_tim.o
                0x0800af88                HAL_TIM_PWM_PulseFinishedHalfCpltCallback
 .text.HAL_TIM_TriggerCallback
                0x0800af98       0x10 obj\debug\hal\src\stm32l0xx_hal_tim.o
                0x0800af98                HAL_TIM_TriggerCallback
 .text.HAL_TIM_TriggerHalfCpltCallback
                0x0800afa8       0x10 obj\debug\hal\src\stm32l0xx_hal_tim.o
                0x0800afa8                HAL_TIM_TriggerHalfCpltCallback
 .text.HAL_TIM_ErrorCallback
                0x0800afb8       0x10 obj\debug\hal\src\stm32l0xx_hal_tim.o
                0x0800afb8                HAL_TIM_ErrorCallback
 .text.HAL_TIM_Base_GetState
                0x0800afc8       0x18 obj\debug\hal\src\stm32l0xx_hal_tim.o
                0x0800afc8                HAL_TIM_Base_GetState
 .text.HAL_TIM_OC_GetState
                0x0800afe0       0x18 obj\debug\hal\src\stm32l0xx_hal_tim.o
                0x0800afe0                HAL_TIM_OC_GetState
 .text.HAL_TIM_PWM_GetState
                0x0800aff8       0x18 obj\debug\hal\src\stm32l0xx_hal_tim.o
                0x0800aff8                HAL_TIM_PWM_GetState
 .text.HAL_TIM_IC_GetState
                0x0800b010       0x18 obj\debug\hal\src\stm32l0xx_hal_tim.o
                0x0800b010                HAL_TIM_IC_GetState
 .text.HAL_TIM_OnePulse_GetState
                0x0800b028       0x18 obj\debug\hal\src\stm32l0xx_hal_tim.o
                0x0800b028                HAL_TIM_OnePulse_GetState
 .text.HAL_TIM_Encoder_GetState
                0x0800b040       0x18 obj\debug\hal\src\stm32l0xx_hal_tim.o
                0x0800b040                HAL_TIM_Encoder_GetState
 .text.TIM_DMAError
                0x0800b058       0x26 obj\debug\hal\src\stm32l0xx_hal_tim.o
                0x0800b058                TIM_DMAError
 .text.TIM_DMADelayPulseCplt
                0x0800b07e       0x72 obj\debug\hal\src\stm32l0xx_hal_tim.o
                0x0800b07e                TIM_DMADelayPulseCplt
 .text.TIM_DMADelayPulseHalfCplt
                0x0800b0f0       0x72 obj\debug\hal\src\stm32l0xx_hal_tim.o
                0x0800b0f0                TIM_DMADelayPulseHalfCplt
 .text.TIM_DMACaptureCplt
                0x0800b162       0x72 obj\debug\hal\src\stm32l0xx_hal_tim.o
                0x0800b162                TIM_DMACaptureCplt
 .text.TIM_DMACaptureHalfCplt
                0x0800b1d4       0x72 obj\debug\hal\src\stm32l0xx_hal_tim.o
                0x0800b1d4                TIM_DMACaptureHalfCplt
 .text.TIM_DMAPeriodElapsedCplt
                0x0800b246       0x26 obj\debug\hal\src\stm32l0xx_hal_tim.o
 .text.TIM_DMAPeriodElapsedHalfCplt
                0x0800b26c       0x26 obj\debug\hal\src\stm32l0xx_hal_tim.o
 .text.TIM_DMATriggerCplt
                0x0800b292       0x26 obj\debug\hal\src\stm32l0xx_hal_tim.o
 .text.TIM_DMATriggerHalfCplt
                0x0800b2b8       0x26 obj\debug\hal\src\stm32l0xx_hal_tim.o
 *fill*         0x0800b2de        0x2 
 .text.TIM_Base_SetConfig
                0x0800b2e0       0xa8 obj\debug\hal\src\stm32l0xx_hal_tim.o
 .text.TIM_OC1_SetConfig
                0x0800b388       0x78 obj\debug\hal\src\stm32l0xx_hal_tim.o
 .text.TIM_OC2_SetConfig
                0x0800b400       0x84 obj\debug\hal\src\stm32l0xx_hal_tim.o
 .text.TIM_OC3_SetConfig
                0x0800b484       0x80 obj\debug\hal\src\stm32l0xx_hal_tim.o
 .text.TIM_OC4_SetConfig
                0x0800b504       0x8c obj\debug\hal\src\stm32l0xx_hal_tim.o
 .text.TIM_SlaveTimer_SetConfig
                0x0800b590      0x112 obj\debug\hal\src\stm32l0xx_hal_tim.o
 *fill*         0x0800b6a2        0x2 
 .text.TIM_TI1_SetConfig
                0x0800b6a4       0xac obj\debug\hal\src\stm32l0xx_hal_tim.o
 .text.TIM_TI1_ConfigInputStage
                0x0800b750       0x5c obj\debug\hal\src\stm32l0xx_hal_tim.o
 .text.TIM_TI2_SetConfig
                0x0800b7ac       0x84 obj\debug\hal\src\stm32l0xx_hal_tim.o
 .text.TIM_TI2_ConfigInputStage
                0x0800b830       0x64 obj\debug\hal\src\stm32l0xx_hal_tim.o
 .text.TIM_TI3_SetConfig
                0x0800b894       0x80 obj\debug\hal\src\stm32l0xx_hal_tim.o
 .text.TIM_TI4_SetConfig
                0x0800b914       0x8c obj\debug\hal\src\stm32l0xx_hal_tim.o
 .text.TIM_ITRx_SetConfig
                0x0800b9a0       0x32 obj\debug\hal\src\stm32l0xx_hal_tim.o
 *fill*         0x0800b9d2        0x2 
 .text.TIM_ETR_SetConfig
                0x0800b9d4       0x40 obj\debug\hal\src\stm32l0xx_hal_tim.o
 .text.TIM_CCxChannelCmd
                0x0800ba14       0x46 obj\debug\hal\src\stm32l0xx_hal_tim.o
 .text.HAL_TIMEx_MasterConfigSynchronization
                0x0800ba5a       0x86 obj\debug\hal\src\stm32l0xx_hal_tim_ex.o
                0x0800ba5a                HAL_TIMEx_MasterConfigSynchronization
 .text.HAL_TIMEx_RemapConfig
                0x0800bae0       0x3a obj\debug\hal\src\stm32l0xx_hal_tim_ex.o
                0x0800bae0                HAL_TIMEx_RemapConfig
 *fill*         0x0800bb1a        0x2 
 .text.HAL_UART_Init
                0x0800bb1c       0xa8 obj\debug\hal\src\stm32l0xx_hal_uart.o
                0x0800bb1c                HAL_UART_Init
 .text.HAL_HalfDuplex_Init
                0x0800bbc4       0xb8 obj\debug\hal\src\stm32l0xx_hal_uart.o
                0x0800bbc4                HAL_HalfDuplex_Init
 .text.HAL_LIN_Init
                0x0800bc7c       0xf0 obj\debug\hal\src\stm32l0xx_hal_uart.o
                0x0800bc7c                HAL_LIN_Init
 .text.HAL_MultiProcessor_Init
                0x0800bd6c       0xf0 obj\debug\hal\src\stm32l0xx_hal_uart.o
                0x0800bd6c                HAL_MultiProcessor_Init
 .text.HAL_UART_DeInit
                0x0800be5c       0x6c obj\debug\hal\src\stm32l0xx_hal_uart.o
                0x0800be5c                HAL_UART_DeInit
 .text.HAL_UART_MspInit
                0x0800bec8       0x10 obj\debug\hal\src\stm32l0xx_hal_uart.o
                0x0800bec8                HAL_UART_MspInit
 .text.HAL_UART_MspDeInit
                0x0800bed8       0x10 obj\debug\hal\src\stm32l0xx_hal_uart.o
                0x0800bed8                HAL_UART_MspDeInit
 .text.HAL_UART_Transmit
                0x0800bee8      0x14e obj\debug\hal\src\stm32l0xx_hal_uart.o
                0x0800bee8                HAL_UART_Transmit
 *fill*         0x0800c036        0x2 
 .text.HAL_UART_Receive
                0x0800c038      0x1d4 obj\debug\hal\src\stm32l0xx_hal_uart.o
                0x0800c038                HAL_UART_Receive
 .text.HAL_UART_Transmit_IT
                0x0800c20c       0xdc obj\debug\hal\src\stm32l0xx_hal_uart.o
                0x0800c20c                HAL_UART_Transmit_IT
 .text.HAL_UART_Receive_IT
                0x0800c2e8      0x170 obj\debug\hal\src\stm32l0xx_hal_uart.o
                0x0800c2e8                HAL_UART_Receive_IT
 .text.HAL_UART_Transmit_DMA
                0x0800c458      0x120 obj\debug\hal\src\stm32l0xx_hal_uart.o
                0x0800c458                HAL_UART_Transmit_DMA
 .text.HAL_UART_Receive_DMA
                0x0800c578      0x130 obj\debug\hal\src\stm32l0xx_hal_uart.o
                0x0800c578                HAL_UART_Receive_DMA
 .text.HAL_UART_DMAPause
                0x0800c6a8       0xa8 obj\debug\hal\src\stm32l0xx_hal_uart.o
                0x0800c6a8                HAL_UART_DMAPause
 .text.HAL_UART_DMAResume
                0x0800c750       0x8a obj\debug\hal\src\stm32l0xx_hal_uart.o
                0x0800c750                HAL_UART_DMAResume
 .text.HAL_UART_DMAStop
                0x0800c7da       0xd6 obj\debug\hal\src\stm32l0xx_hal_uart.o
                0x0800c7da                HAL_UART_DMAStop
 .text.HAL_UART_Abort
                0x0800c8b0      0x11c obj\debug\hal\src\stm32l0xx_hal_uart.o
                0x0800c8b0                HAL_UART_Abort
 .text.HAL_UART_AbortTransmit
                0x0800c9cc       0x86 obj\debug\hal\src\stm32l0xx_hal_uart.o
                0x0800c9cc                HAL_UART_AbortTransmit
 *fill*         0x0800ca52        0x2 
 .text.HAL_UART_AbortReceive
                0x0800ca54       0xb4 obj\debug\hal\src\stm32l0xx_hal_uart.o
                0x0800ca54                HAL_UART_AbortReceive
 .text.HAL_UART_Abort_IT
                0x0800cb08      0x170 obj\debug\hal\src\stm32l0xx_hal_uart.o
                0x0800cb08                HAL_UART_Abort_IT
 .text.HAL_UART_AbortTransmit_IT
                0x0800cc78       0xac obj\debug\hal\src\stm32l0xx_hal_uart.o
                0x0800cc78                HAL_UART_AbortTransmit_IT
 .text.HAL_UART_AbortReceive_IT
                0x0800cd24       0xe0 obj\debug\hal\src\stm32l0xx_hal_uart.o
                0x0800cd24                HAL_UART_AbortReceive_IT
 .text.HAL_UART_IRQHandler
                0x0800ce04      0x248 obj\debug\hal\src\stm32l0xx_hal_uart.o
                0x0800ce04                HAL_UART_IRQHandler
 .text.HAL_UART_TxCpltCallback
                0x0800d04c       0x10 obj\debug\hal\src\stm32l0xx_hal_uart.o
                0x0800d04c                HAL_UART_TxCpltCallback
 .text.HAL_UART_TxHalfCpltCallback
                0x0800d05c       0x10 obj\debug\hal\src\stm32l0xx_hal_uart.o
                0x0800d05c                HAL_UART_TxHalfCpltCallback
 .text.HAL_UART_RxCpltCallback
                0x0800d06c       0x10 obj\debug\hal\src\stm32l0xx_hal_uart.o
                0x0800d06c                HAL_UART_RxCpltCallback
 .text.HAL_UART_RxHalfCpltCallback
                0x0800d07c       0x10 obj\debug\hal\src\stm32l0xx_hal_uart.o
                0x0800d07c                HAL_UART_RxHalfCpltCallback
 .text.HAL_UART_ErrorCallback
                0x0800d08c       0x10 obj\debug\hal\src\stm32l0xx_hal_uart.o
                0x0800d08c                HAL_UART_ErrorCallback
 .text.HAL_UART_AbortCpltCallback
                0x0800d09c       0x10 obj\debug\hal\src\stm32l0xx_hal_uart.o
                0x0800d09c                HAL_UART_AbortCpltCallback
 .text.HAL_UART_AbortTransmitCpltCallback
                0x0800d0ac       0x10 obj\debug\hal\src\stm32l0xx_hal_uart.o
                0x0800d0ac                HAL_UART_AbortTransmitCpltCallback
 .text.HAL_UART_AbortReceiveCpltCallback
                0x0800d0bc       0x10 obj\debug\hal\src\stm32l0xx_hal_uart.o
                0x0800d0bc                HAL_UART_AbortReceiveCpltCallback
 .text.HAL_MultiProcessor_EnableMuteMode
                0x0800d0cc       0x4e obj\debug\hal\src\stm32l0xx_hal_uart.o
                0x0800d0cc                HAL_MultiProcessor_EnableMuteMode
 *fill*         0x0800d11a        0x2 
 .text.HAL_MultiProcessor_DisableMuteMode
                0x0800d11c       0x50 obj\debug\hal\src\stm32l0xx_hal_uart.o
                0x0800d11c                HAL_MultiProcessor_DisableMuteMode
 .text.HAL_MultiProcessor_EnterMuteMode
                0x0800d16c       0x20 obj\debug\hal\src\stm32l0xx_hal_uart.o
                0x0800d16c                HAL_MultiProcessor_EnterMuteMode
 .text.HAL_HalfDuplex_EnableTransmitter
                0x0800d18c       0x5c obj\debug\hal\src\stm32l0xx_hal_uart.o
                0x0800d18c                HAL_HalfDuplex_EnableTransmitter
 .text.HAL_HalfDuplex_EnableReceiver
                0x0800d1e8       0x5c obj\debug\hal\src\stm32l0xx_hal_uart.o
                0x0800d1e8                HAL_HalfDuplex_EnableReceiver
 .text.HAL_LIN_SendBreak
                0x0800d244       0x4c obj\debug\hal\src\stm32l0xx_hal_uart.o
                0x0800d244                HAL_LIN_SendBreak
 .text.HAL_UART_GetState
                0x0800d290       0x22 obj\debug\hal\src\stm32l0xx_hal_uart.o
                0x0800d290                HAL_UART_GetState
 .text.HAL_UART_GetError
                0x0800d2b2       0x14 obj\debug\hal\src\stm32l0xx_hal_uart.o
                0x0800d2b2                HAL_UART_GetError
 *fill*         0x0800d2c6        0x2 
 .text.UART_SetConfig
                0x0800d2c8      0x630 obj\debug\hal\src\stm32l0xx_hal_uart.o
                0x0800d2c8                UART_SetConfig
 .text.UART_AdvFeatureConfig
                0x0800d8f8      0x168 obj\debug\hal\src\stm32l0xx_hal_uart.o
                0x0800d8f8                UART_AdvFeatureConfig
 .text.UART_CheckIdleState
                0x0800da60       0x88 obj\debug\hal\src\stm32l0xx_hal_uart.o
                0x0800da60                UART_CheckIdleState
 .text.UART_WaitOnFlagUntilTimeout
                0x0800dae8       0x94 obj\debug\hal\src\stm32l0xx_hal_uart.o
                0x0800dae8                UART_WaitOnFlagUntilTimeout
 .text.UART_EndTxTransfer
                0x0800db7c       0x26 obj\debug\hal\src\stm32l0xx_hal_uart.o
 *fill*         0x0800dba2        0x2 
 .text.UART_EndRxTransfer
                0x0800dba4       0x40 obj\debug\hal\src\stm32l0xx_hal_uart.o
 .text.UART_DMATransmitCplt
                0x0800dbe4       0x54 obj\debug\hal\src\stm32l0xx_hal_uart.o
 .text.UART_DMATxHalfCplt
                0x0800dc38       0x1e obj\debug\hal\src\stm32l0xx_hal_uart.o
 *fill*         0x0800dc56        0x2 
 .text.UART_DMAReceiveCplt
                0x0800dc58       0x6c obj\debug\hal\src\stm32l0xx_hal_uart.o
 .text.UART_DMARxHalfCplt
                0x0800dcc4       0x1e obj\debug\hal\src\stm32l0xx_hal_uart.o
 .text.UART_DMAError
                0x0800dce2       0x7e obj\debug\hal\src\stm32l0xx_hal_uart.o
 .text.UART_DMAAbortOnError
                0x0800dd60       0x2e obj\debug\hal\src\stm32l0xx_hal_uart.o
 .text.UART_DMATxAbortCallback
                0x0800dd8e       0x64 obj\debug\hal\src\stm32l0xx_hal_uart.o
 .text.UART_DMARxAbortCallback
                0x0800ddf2       0x74 obj\debug\hal\src\stm32l0xx_hal_uart.o
 .text.UART_DMATxOnlyAbortCallback
                0x0800de66       0x2c obj\debug\hal\src\stm32l0xx_hal_uart.o
 .text.UART_DMARxOnlyAbortCallback
                0x0800de92       0x44 obj\debug\hal\src\stm32l0xx_hal_uart.o
 .text.UART_TxISR_8BIT
                0x0800ded6       0x6e obj\debug\hal\src\stm32l0xx_hal_uart.o
 .text.UART_TxISR_16BIT
                0x0800df44       0x78 obj\debug\hal\src\stm32l0xx_hal_uart.o
 .text.UART_EndTransmit_IT
                0x0800dfbc       0x34 obj\debug\hal\src\stm32l0xx_hal_uart.o
 .text.UART_RxISR_8BIT
                0x0800dff0       0xb8 obj\debug\hal\src\stm32l0xx_hal_uart.o
 .text.UART_RxISR_16BIT
                0x0800e0a8       0xb8 obj\debug\hal\src\stm32l0xx_hal_uart.o
 .text.HAL_RS485Ex_Init
                0x0800e160       0xe0 obj\debug\hal\src\stm32l0xx_hal_uart_ex.o
                0x0800e160                HAL_RS485Ex_Init
 .text.HAL_UARTEx_WakeupCallback
                0x0800e240       0x10 obj\debug\hal\src\stm32l0xx_hal_uart_ex.o
                0x0800e240                HAL_UARTEx_WakeupCallback
 .text.HAL_UARTEx_EnableClockStopMode
                0x0800e250       0x42 obj\debug\hal\src\stm32l0xx_hal_uart_ex.o
                0x0800e250                HAL_UARTEx_EnableClockStopMode
 *fill*         0x0800e292        0x2 
 .text.HAL_UARTEx_DisableClockStopMode
                0x0800e294       0x44 obj\debug\hal\src\stm32l0xx_hal_uart_ex.o
                0x0800e294                HAL_UARTEx_DisableClockStopMode
 .text.HAL_MultiProcessorEx_AddressLength_Set
                0x0800e2d8       0x62 obj\debug\hal\src\stm32l0xx_hal_uart_ex.o
                0x0800e2d8                HAL_MultiProcessorEx_AddressLength_Set
 *fill*         0x0800e33a        0x2 
 .text.HAL_UARTEx_StopModeWakeUpSourceConfig
                0x0800e33c       0xcc obj\debug\hal\src\stm32l0xx_hal_uart_ex.o
                0x0800e33c                HAL_UARTEx_StopModeWakeUpSourceConfig
 .text.HAL_UARTEx_EnableStopMode
                0x0800e408       0x40 obj\debug\hal\src\stm32l0xx_hal_uart_ex.o
                0x0800e408                HAL_UARTEx_EnableStopMode
 .text.HAL_UARTEx_DisableStopMode
                0x0800e448       0x40 obj\debug\hal\src\stm32l0xx_hal_uart_ex.o
                0x0800e448                HAL_UARTEx_DisableStopMode
 .text.UARTEx_Wakeup_AddressConfig
                0x0800e488       0x48 obj\debug\hal\src\stm32l0xx_hal_uart_ex.o
 .text.HAL_USART_Init
                0x0800e4d0       0xa0 obj\debug\hal\src\stm32l0xx_hal_usart.o
                0x0800e4d0                HAL_USART_Init
 .text.HAL_USART_DeInit
                0x0800e570       0x5a obj\debug\hal\src\stm32l0xx_hal_usart.o
                0x0800e570                HAL_USART_DeInit
 .text.HAL_USART_MspInit
                0x0800e5ca       0x10 obj\debug\hal\src\stm32l0xx_hal_usart.o
                0x0800e5ca                HAL_USART_MspInit
 .text.HAL_USART_MspDeInit
                0x0800e5da       0x10 obj\debug\hal\src\stm32l0xx_hal_usart.o
                0x0800e5da                HAL_USART_MspDeInit
 .text.HAL_USART_Transmit
                0x0800e5ea      0x17c obj\debug\hal\src\stm32l0xx_hal_usart.o
                0x0800e5ea                HAL_USART_Transmit
 *fill*         0x0800e766        0x2 
 .text.HAL_USART_Receive
                0x0800e768      0x1e4 obj\debug\hal\src\stm32l0xx_hal_usart.o
                0x0800e768                HAL_USART_Receive
 .text.HAL_USART_TransmitReceive
                0x0800e94c      0x300 obj\debug\hal\src\stm32l0xx_hal_usart.o
                0x0800e94c                HAL_USART_TransmitReceive
 .text.HAL_USART_Transmit_IT
                0x0800ec4c       0xdc obj\debug\hal\src\stm32l0xx_hal_usart.o
                0x0800ec4c                HAL_USART_Transmit_IT
 .text.HAL_USART_Receive_IT
                0x0800ed28      0x16c obj\debug\hal\src\stm32l0xx_hal_usart.o
                0x0800ed28                HAL_USART_Receive_IT
 .text.HAL_USART_TransmitReceive_IT
                0x0800ee94      0x1a8 obj\debug\hal\src\stm32l0xx_hal_usart.o
                0x0800ee94                HAL_USART_TransmitReceive_IT
 .text.HAL_USART_Transmit_DMA
                0x0800f03c      0x138 obj\debug\hal\src\stm32l0xx_hal_usart.o
                0x0800f03c                HAL_USART_Transmit_DMA
 .text.HAL_USART_Receive_DMA
                0x0800f174      0x1c0 obj\debug\hal\src\stm32l0xx_hal_usart.o
                0x0800f174                HAL_USART_Receive_DMA
 .text.HAL_USART_TransmitReceive_DMA
                0x0800f334      0x1f4 obj\debug\hal\src\stm32l0xx_hal_usart.o
                0x0800f334                HAL_USART_TransmitReceive_DMA
 .text.HAL_USART_DMAPause
                0x0800f528       0xd8 obj\debug\hal\src\stm32l0xx_hal_usart.o
                0x0800f528                HAL_USART_DMAPause
 .text.HAL_USART_DMAResume
                0x0800f600       0xb4 obj\debug\hal\src\stm32l0xx_hal_usart.o
                0x0800f600                HAL_USART_DMAResume
 .text.HAL_USART_DMAStop
                0x0800f6b4       0xa2 obj\debug\hal\src\stm32l0xx_hal_usart.o
                0x0800f6b4                HAL_USART_DMAStop
 *fill*         0x0800f756        0x2 
 .text.HAL_USART_Abort
                0x0800f758      0x114 obj\debug\hal\src\stm32l0xx_hal_usart.o
                0x0800f758                HAL_USART_Abort
 .text.HAL_USART_Abort_IT
                0x0800f86c      0x15c obj\debug\hal\src\stm32l0xx_hal_usart.o
                0x0800f86c                HAL_USART_Abort_IT
 .text.HAL_USART_IRQHandler
                0x0800f9c8      0x23c obj\debug\hal\src\stm32l0xx_hal_usart.o
                0x0800f9c8                HAL_USART_IRQHandler
 .text.HAL_USART_TxCpltCallback
                0x0800fc04       0x10 obj\debug\hal\src\stm32l0xx_hal_usart.o
                0x0800fc04                HAL_USART_TxCpltCallback
 .text.HAL_USART_TxHalfCpltCallback
                0x0800fc14       0x10 obj\debug\hal\src\stm32l0xx_hal_usart.o
                0x0800fc14                HAL_USART_TxHalfCpltCallback
 .text.HAL_USART_RxCpltCallback
                0x0800fc24       0x10 obj\debug\hal\src\stm32l0xx_hal_usart.o
                0x0800fc24                HAL_USART_RxCpltCallback
 .text.HAL_USART_RxHalfCpltCallback
                0x0800fc34       0x10 obj\debug\hal\src\stm32l0xx_hal_usart.o
                0x0800fc34                HAL_USART_RxHalfCpltCallback
 .text.HAL_USART_TxRxCpltCallback
                0x0800fc44       0x10 obj\debug\hal\src\stm32l0xx_hal_usart.o
                0x0800fc44                HAL_USART_TxRxCpltCallback
 .text.HAL_USART_ErrorCallback
                0x0800fc54       0x10 obj\debug\hal\src\stm32l0xx_hal_usart.o
                0x0800fc54                HAL_USART_ErrorCallback
 .text.HAL_USART_AbortCpltCallback
                0x0800fc64       0x10 obj\debug\hal\src\stm32l0xx_hal_usart.o
                0x0800fc64                HAL_USART_AbortCpltCallback
 .text.HAL_USART_GetState
                0x0800fc74       0x18 obj\debug\hal\src\stm32l0xx_hal_usart.o
                0x0800fc74                HAL_USART_GetState
 .text.HAL_USART_GetError
                0x0800fc8c       0x14 obj\debug\hal\src\stm32l0xx_hal_usart.o
                0x0800fc8c                HAL_USART_GetError
 .text.USART_EndTransfer
                0x0800fca0       0x3c obj\debug\hal\src\stm32l0xx_hal_usart.o
 .text.USART_DMATransmitCplt
                0x0800fcdc       0x6a obj\debug\hal\src\stm32l0xx_hal_usart.o
 .text.USART_DMATxHalfCplt
                0x0800fd46       0x1e obj\debug\hal\src\stm32l0xx_hal_usart.o
 .text.USART_DMAReceiveCplt
                0x0800fd64       0xb4 obj\debug\hal\src\stm32l0xx_hal_usart.o
 .text.USART_DMARxHalfCplt
                0x0800fe18       0x1e obj\debug\hal\src\stm32l0xx_hal_usart.o
 .text.USART_DMAError
                0x0800fe36       0x46 obj\debug\hal\src\stm32l0xx_hal_usart.o
 .text.USART_DMAAbortOnError
                0x0800fe7c       0x2a obj\debug\hal\src\stm32l0xx_hal_usart.o
 .text.USART_DMATxAbortCallback
                0x0800fea6       0x5c obj\debug\hal\src\stm32l0xx_hal_usart.o
 .text.USART_DMARxAbortCallback
                0x0800ff02       0x5c obj\debug\hal\src\stm32l0xx_hal_usart.o
 .text.USART_WaitOnFlagUntilTimeout
                0x0800ff5e       0x6a obj\debug\hal\src\stm32l0xx_hal_usart.o
 .text.USART_SetConfig
                0x0800ffc8      0x2a4 obj\debug\hal\src\stm32l0xx_hal_usart.o
 .text.USART_CheckIdleState
                0x0801026c       0x88 obj\debug\hal\src\stm32l0xx_hal_usart.o
 .text.USART_TxISR_8BIT
                0x080102f4       0x7e obj\debug\hal\src\stm32l0xx_hal_usart.o
 .text.USART_TxISR_16BIT
                0x08010372       0x88 obj\debug\hal\src\stm32l0xx_hal_usart.o
 .text.USART_EndTransmit_IT
                0x080103fa       0x86 obj\debug\hal\src\stm32l0xx_hal_usart.o
 .text.USART_RxISR_8BIT
                0x08010480      0x100 obj\debug\hal\src\stm32l0xx_hal_usart.o
 .text.USART_RxISR_16BIT
                0x08010580      0x100 obj\debug\hal\src\stm32l0xx_hal_usart.o
 .text.bootloader_api_test_function
                0x08010680        0xa obj\debug\src\bootloader_api_push.o
                0x08010680                bootloader_api_test_function
 *fill*         0x0801068a        0x2 
 .text.move_vector_table
                0x0801068c       0x60 obj\debug\src\bootloader_utils.o
                0x0801068c                move_vector_table
 .text.bootloader_mode_handler
                0x080106ec      0x420 obj\debug\src\bootloader_utils.o
                0x080106ec                bootloader_mode_handler
 .text.NVIC_Disable
                0x08010b0c       0x1a obj\debug\src\bootloader_utils.o
                0x08010b0c                NVIC_Disable
 *fill*         0x08010b26        0x2 
 .text.JumpToApplication
                0x08010b28       0x3c obj\debug\src\bootloader_utils.o
                0x08010b28                JumpToApplication
 .text.get_convert_string
                0x08010b64       0x10 obj\debug\src\convert.o
                0x08010b64                get_convert_string
 .text.swap     0x08010b74       0x2c obj\debug\src\convert.o
 .text.reverse  0x08010ba0       0x46 obj\debug\src\convert.o
 *fill*         0x08010be6        0x2 
 .text.itoa2_int16
                0x08010be8      0x184 obj\debug\src\convert.o
                0x08010be8                itoa2_int16
 .text.itoa2_int32
                0x08010d6c      0x160 obj\debug\src\convert.o
                0x08010d6c                itoa2_int32
 .text.itoa2_uint32
                0x08010ecc      0x148 obj\debug\src\convert.o
                0x08010ecc                itoa2_uint32
 .text.drv_clock_config
                0x08011014       0xec obj\debug\src\drv_clock.o
                0x08011014                drv_clock_config
 .text.drv_clock_config_lp
                0x08011100       0xd8 obj\debug\src\drv_clock.o
                0x08011100                drv_clock_config_lp
 .text.drv_clock_deinit
                0x080111d8       0x64 obj\debug\src\drv_clock.o
                0x080111d8                drv_clock_deinit
 .text.drv_flash_unlock
                0x0801123c       0x58 obj\debug\src\drv_flash.o
                0x0801123c                drv_flash_unlock
 .text.drv_flash_lock
                0x08011294       0x34 obj\debug\src\drv_flash.o
                0x08011294                drv_flash_lock
 .text.drv_flash_erase
                0x080112c8       0x8c obj\debug\src\drv_flash.o
                0x080112c8                drv_flash_erase
 .text.drv_flash_write
                0x08011354      0x128 obj\debug\src\drv_flash.o
                0x08011354                drv_flash_write
 .text.drv_flash_read
                0x0801147c       0x48 obj\debug\src\drv_flash.o
                0x0801147c                drv_flash_read
 .text.com_serial_port_struct_clear
                0x080114c4       0x1e obj\debug\src\drv_serial_port.o
                0x080114c4                com_serial_port_struct_clear
 *fill*         0x080114e2        0x2 
 .text.init_com_serial_port_driver
                0x080114e4       0x58 obj\debug\src\drv_serial_port.o
                0x080114e4                init_com_serial_port_driver
 .text.com_serial_tx_stop
                0x0801153c       0x26 obj\debug\src\drv_serial_port.o
                0x0801153c                com_serial_tx_stop
 *fill*         0x08011562        0x2 
 .text.is_com_serial_tx_ready
                0x08011564       0x74 obj\debug\src\drv_serial_port.o
                0x08011564                is_com_serial_tx_ready
 .text.com_serial_tx_start
                0x080115d8       0xc8 obj\debug\src\drv_serial_port.o
                0x080115d8                com_serial_tx_start
 .text.com_serial_tx_clear
                0x080116a0       0x26 obj\debug\src\drv_serial_port.o
                0x080116a0                com_serial_tx_clear
 .text.com_serial_tx_add_byte
                0x080116c6       0x52 obj\debug\src\drv_serial_port.o
                0x080116c6                com_serial_tx_add_byte
 .text.com_serial_tx_add_array
                0x08011718       0x84 obj\debug\src\drv_serial_port.o
                0x08011718                com_serial_tx_add_array
 .text.com_serial_tx_add_string
                0x0801179c       0x76 obj\debug\src\drv_serial_port.o
                0x0801179c                com_serial_tx_add_string
 *fill*         0x08011812        0x2 
 .text.com_serial_tx_send_string
                0x08011814       0x68 obj\debug\src\drv_serial_port.o
                0x08011814                com_serial_tx_send_string
 .text.com_serial_tx_send_slip_packet
                0x0801187c       0x70 obj\debug\src\drv_serial_port.o
                0x0801187c                com_serial_tx_send_slip_packet
 .text.com_serial_rx_read_data
                0x080118ec       0x46 obj\debug\src\drv_serial_port.o
                0x080118ec                com_serial_rx_read_data
 *fill*         0x08011932        0x2 
 .text.com_serial_clear
                0x08011934       0x7c obj\debug\src\drv_serial_port.o
                0x08011934                com_serial_clear
 .text.sim_buffer_clear
                0x080119b0       0x6c obj\debug\src\drv_serial_port.o
                0x080119b0                sim_buffer_clear
 .text.get_sim_data
                0x08011a1c       0x74 obj\debug\src\drv_serial_port.o
                0x08011a1c                get_sim_data
 .text.com_serial_tx_irq_SIM800
                0x08011a90       0xa6 obj\debug\src\drv_serial_port.o
                0x08011a90                com_serial_tx_irq_SIM800
 *fill*         0x08011b36        0x2 
 .text.com_serial_tx_irq_USB
                0x08011b38      0x39c obj\debug\src\drv_serial_port.o
                0x08011b38                com_serial_tx_irq_USB
 .text.com_serial_rx_irq_SIM800
                0x08011ed4       0xb8 obj\debug\src\drv_serial_port.o
                0x08011ed4                com_serial_rx_irq_SIM800
 .text.com_serial_rx_irq_USB
                0x08011f8c      0x298 obj\debug\src\drv_serial_port.o
                0x08011f8c                com_serial_rx_irq_USB
 .text.drv_uart_init
                0x08012224       0xe8 obj\debug\src\drv_uart.o
                0x08012224                drv_uart_init
 .text.drv_uart_deinit
                0x0801230c       0x80 obj\debug\src\drv_uart.o
                0x0801230c                drv_uart_deinit
 .text.USART1_IRQHandler
                0x0801238c       0x98 obj\debug\src\drv_uart.o
                0x0801238c                USART1_IRQHandler
 .text.com_serial_generate_tx
                0x08012424       0x44 obj\debug\src\drv_uart.o
                0x08012424                com_serial_generate_tx
 .text.uart_send
                0x08012468       0x24 obj\debug\src\drv_uart.o
                0x08012468                uart_send
 .text.drv_usb_disconnect
                0x0801248c      0x10c obj\debug\src\drv_usb_main.o
                0x0801248c                drv_usb_disconnect
 .text.drv_usb_detect_init
                0x08012598       0x38 obj\debug\src\drv_usb_main.o
                0x08012598                drv_usb_detect_init
 .text.drv_usb_detect_deinit
                0x080125d0       0x38 obj\debug\src\drv_usb_main.o
                0x080125d0                drv_usb_detect_deinit
 .text.drv_usb_detected
                0x08012608       0x28 obj\debug\src\drv_usb_main.o
                0x08012608                drv_usb_detected
 .text.drv_usb_init
                0x08012630      0x124 obj\debug\src\drv_usb_main.o
                0x08012630                drv_usb_init
 .text.USB_IRQHandler
                0x08012754      0x2bc obj\debug\src\drv_usb_main.o
                0x08012754                USB_IRQHandler
 .text.main     0x08012a10      0x104 obj\debug\src\main.o
                0x08012a10                main
 .text.radio_reset
                0x08012b14       0x2e obj\debug\src\sim.o
                0x08012b14                radio_reset
 *fill*         0x08012b42        0x2 
 .text.radio_boot
                0x08012b44       0x30 obj\debug\src\sim.o
                0x08012b44                radio_boot
 .text.radio_init
                0x08012b74       0x6c obj\debug\src\sim.o
                0x08012b74                radio_init
 .text.radio_deinit
                0x08012be0       0x5c obj\debug\src\sim.o
                0x08012be0                radio_deinit
 .text.radio_wake
                0x08012c3c       0x58 obj\debug\src\sim.o
                0x08012c3c                radio_wake
 .text.HAL_Init
                0x08012c94       0x4c obj\debug\hal\src\stm32l0xx_hal.o
                0x08012c94                HAL_Init
 .text.HAL_DeInit
                0x08012ce0       0x4c obj\debug\hal\src\stm32l0xx_hal.o
                0x08012ce0                HAL_DeInit
 .text.HAL_MspInit
                0x08012d2c        0xa obj\debug\hal\src\stm32l0xx_hal.o
                0x08012d2c                HAL_MspInit
 .text.HAL_MspDeInit
                0x08012d36        0xa obj\debug\hal\src\stm32l0xx_hal.o
                0x08012d36                HAL_MspDeInit
 .text.HAL_InitTick
                0x08012d40       0x54 obj\debug\hal\src\stm32l0xx_hal.o
                0x08012d40                HAL_InitTick
 .text.HAL_IncTick
                0x08012d94       0x18 obj\debug\hal\src\stm32l0xx_hal.o
                0x08012d94                HAL_IncTick
 .text.HAL_GetTick
                0x08012dac       0x14 obj\debug\hal\src\stm32l0xx_hal.o
                0x08012dac                HAL_GetTick
 .text.HAL_Delay
                0x08012dc0       0x3c obj\debug\hal\src\stm32l0xx_hal.o
                0x08012dc0                HAL_Delay
 .text.HAL_SuspendTick
                0x08012dfc       0x1c obj\debug\hal\src\stm32l0xx_hal.o
                0x08012dfc                HAL_SuspendTick
 .text.HAL_ResumeTick
                0x08012e18       0x1c obj\debug\hal\src\stm32l0xx_hal.o
                0x08012e18                HAL_ResumeTick
 .text.HAL_GetHalVersion
                0x08012e34       0x10 obj\debug\hal\src\stm32l0xx_hal.o
                0x08012e34                HAL_GetHalVersion
 .text.HAL_GetREVID
                0x08012e44       0x14 obj\debug\hal\src\stm32l0xx_hal.o
                0x08012e44                HAL_GetREVID
 .text.HAL_GetDEVID
                0x08012e58       0x18 obj\debug\hal\src\stm32l0xx_hal.o
                0x08012e58                HAL_GetDEVID
 .text.HAL_GetUIDw0
                0x08012e70       0x14 obj\debug\hal\src\stm32l0xx_hal.o
                0x08012e70                HAL_GetUIDw0
 .text.HAL_GetUIDw1
                0x08012e84       0x14 obj\debug\hal\src\stm32l0xx_hal.o
                0x08012e84                HAL_GetUIDw1
 .text.HAL_GetUIDw2
                0x08012e98       0x14 obj\debug\hal\src\stm32l0xx_hal.o
                0x08012e98                HAL_GetUIDw2
 .text.HAL_DBGMCU_EnableDBGSleepMode
                0x08012eac       0x1c obj\debug\hal\src\stm32l0xx_hal.o
                0x08012eac                HAL_DBGMCU_EnableDBGSleepMode
 .text.HAL_DBGMCU_DisableDBGSleepMode
                0x08012ec8       0x1c obj\debug\hal\src\stm32l0xx_hal.o
                0x08012ec8                HAL_DBGMCU_DisableDBGSleepMode
 .text.HAL_DBGMCU_EnableDBGStopMode
                0x08012ee4       0x1c obj\debug\hal\src\stm32l0xx_hal.o
                0x08012ee4                HAL_DBGMCU_EnableDBGStopMode
 .text.HAL_DBGMCU_DisableDBGStopMode
                0x08012f00       0x1c obj\debug\hal\src\stm32l0xx_hal.o
                0x08012f00                HAL_DBGMCU_DisableDBGStopMode
 .text.HAL_DBGMCU_EnableDBGStandbyMode
                0x08012f1c       0x1c obj\debug\hal\src\stm32l0xx_hal.o
                0x08012f1c                HAL_DBGMCU_EnableDBGStandbyMode
 .text.HAL_DBGMCU_DisableDBGStandbyMode
                0x08012f38       0x1c obj\debug\hal\src\stm32l0xx_hal.o
                0x08012f38                HAL_DBGMCU_DisableDBGStandbyMode
 .text.HAL_DBGMCU_DBG_EnableLowPowerConfig
                0x08012f54       0x20 obj\debug\hal\src\stm32l0xx_hal.o
                0x08012f54                HAL_DBGMCU_DBG_EnableLowPowerConfig
 .text.HAL_DBGMCU_DBG_DisableLowPowerConfig
                0x08012f74       0x24 obj\debug\hal\src\stm32l0xx_hal.o
                0x08012f74                HAL_DBGMCU_DBG_DisableLowPowerConfig
 .text.HAL_SYSCFG_GetBootMode
                0x08012f98       0x18 obj\debug\hal\src\stm32l0xx_hal.o
                0x08012f98                HAL_SYSCFG_GetBootMode
 .text.HAL_SYSCFG_VREFINT_OutputSelect
                0x08012fb0       0x2c obj\debug\hal\src\stm32l0xx_hal.o
                0x08012fb0                HAL_SYSCFG_VREFINT_OutputSelect
 .text.HAL_SYSCFG_Enable_Lock_VREFINT
                0x08012fdc       0x1c obj\debug\hal\src\stm32l0xx_hal.o
                0x08012fdc                HAL_SYSCFG_Enable_Lock_VREFINT
 .text.HAL_SYSCFG_Disable_Lock_VREFINT
                0x08012ff8       0x1c obj\debug\hal\src\stm32l0xx_hal.o
                0x08012ff8                HAL_SYSCFG_Disable_Lock_VREFINT
 .text.SystemInit
                0x08013014       0x7c obj\debug\src\system_stm32l0xx.o
                0x08013014                SystemInit
 .text.SystemCoreClockUpdate
                0x08013090      0x170 obj\debug\src\system_stm32l0xx.o
                0x08013090                SystemCoreClockUpdate
 .text.EP1_SETUP
                0x08013200        0xa obj\debug\src\usb_cdc.o
                0x08013200                EP1_SETUP
 .text.EP2_SETUP
                0x0801320a        0xa obj\debug\src\usb_cdc.o
                0x0801320a                EP2_SETUP
 .text.EP3_SETUP
                0x08013214        0xa obj\debug\src\usb_cdc.o
                0x08013214                EP3_SETUP
 .text.EP1_OUT  0x0801321e        0xa obj\debug\src\usb_cdc.o
                0x0801321e                EP1_OUT
 .text.EP2_OUT  0x08013228       0x50 obj\debug\src\usb_cdc.o
                0x08013228                EP2_OUT
 .text.EP3_OUT  0x08013278        0xa obj\debug\src\usb_cdc.o
                0x08013278                EP3_OUT
 *fill*         0x08013282        0x2 
 .text.EP1_IN   0x08013284       0xd0 obj\debug\src\usb_cdc.o
                0x08013284                EP1_IN
 .text.EP2_IN   0x08013354        0xa obj\debug\src\usb_cdc.o
                0x08013354                EP2_IN
 .text.EP3_IN   0x0801335e        0xa obj\debug\src\usb_cdc.o
                0x0801335e                EP3_IN
 .text.USB_SetAddress
                0x08013368       0x20 obj\debug\src\usb_functions.o
                0x08013368                USB_SetAddress
 .text.EP_Status
                0x08013388       0x78 obj\debug\src\usb_functions.o
                0x08013388                EP_Status
 .text.USB_ReadEP
                0x08013400      0x11c obj\debug\src\usb_functions.o
                0x08013400                USB_ReadEP
 .text.USB_WriteEP
                0x0801351c      0x160 obj\debug\src\usb_functions.o
                0x0801351c                USB_WriteEP
 .text.USB_SetupStage
                0x0801367c       0x18 obj\debug\src\usb_functions.o
                0x0801367c                USB_SetupStage
 .text.USB_DataInStage
                0x08013694       0x54 obj\debug\src\usb_functions.o
                0x08013694                USB_DataInStage
 .text.USB_StatusInStage
                0x080136e8       0x14 obj\debug\src\usb_functions.o
                0x080136e8                USB_StatusInStage
 .text.USB_DataOutStage
                0x080136fc       0x40 obj\debug\src\usb_functions.o
                0x080136fc                USB_DataOutStage
 .text.USB_StatusOutStage
                0x0801373c       0x18 obj\debug\src\usb_functions.o
                0x0801373c                USB_StatusOutStage
 .text.USB_ReqGetDescriptor
                0x08013754      0x160 obj\debug\src\usb_functions.o
                0x08013754                USB_ReqGetDescriptor
 .text.USB_ReqSetAddress
                0x080138b4       0x38 obj\debug\src\usb_functions.o
                0x080138b4                USB_ReqSetAddress
 .text.USB_DisableEP
                0x080138ec       0x1a obj\debug\src\usb_functions.o
                0x080138ec                USB_DisableEP
 *fill*         0x08013906        0x2 
 .text.USB_EnableEP
                0x08013908       0x20 obj\debug\src\usb_functions.o
                0x08013908                USB_EnableEP
 .text.USB_ResetEP
                0x08013928       0x60 obj\debug\src\usb_functions.o
                0x08013928                USB_ResetEP
 .text.USB_ReqSetConfiguration
                0x08013988      0x104 obj\debug\src\usb_functions.o
                0x08013988                USB_ReqSetConfiguration
 .text.EP0_SETUP
                0x08013a8c      0x118 obj\debug\src\usb_functions.o
                0x08013a8c                EP0_SETUP
 .text.EP0_OUT  0x08013ba4       0x74 obj\debug\src\usb_functions.o
                0x08013ba4                EP0_OUT
 .text.EP0_IN   0x08013c18       0x48 obj\debug\src\usb_functions.o
                0x08013c18                EP0_IN
 .text.arr_to_dword
                0x08013c60       0x32 obj\debug\src\usb_utilities.o
                0x08013c60                arr_to_dword
 .text.dword_to_arr
                0x08013c92       0x3e obj\debug\src\usb_utilities.o
                0x08013c92                dword_to_arr
 .text.usb_send_message
                0x08013cd0       0xe4 obj\debug\src\usb_utilities.o
                0x08013cd0                usb_send_message
 .text.usb_send_param_confirm
                0x08013db4       0x94 obj\debug\src\usb_utilities.o
                0x08013db4                usb_send_param_confirm
 .text.usb_send_pc_off
                0x08013e48       0x70 obj\debug\src\usb_utilities.o
                0x08013e48                usb_send_pc_off
 .text.usb_param_config
                0x08013eb8      0x36c obj\debug\src\usb_utilities.o
                0x08013eb8                usb_param_config
 .text.usb_connect_control
                0x08014224       0x98 obj\debug\src\usb_utilities.o
                0x08014224                usb_connect_control
 .text.exit     0x080142bc       0x2c c:/program files (x86)/embitz/2.10/share/armgcc/bin/../lib/gcc/arm-none-eabi/9.3.1/../../../../arm-none-eabi/lib/thumb/v6-m/nofp\libg_nano.a(lib_a-exit.o)
                0x080142bc                exit
 .text.__libc_init_array
                0x080142e8       0x48 c:/program files (x86)/embitz/2.10/share/armgcc/bin/../lib/gcc/arm-none-eabi/9.3.1/../../../../arm-none-eabi/lib/thumb/v6-m/nofp\libg_nano.a(lib_a-init.o)
                0x080142e8                __libc_init_array
 .text.memset   0x08014330       0x10 c:/program files (x86)/embitz/2.10/share/armgcc/bin/../lib/gcc/arm-none-eabi/9.3.1/../../../../arm-none-eabi/lib/thumb/v6-m/nofp\libg_nano.a(lib_a-memset.o)
                0x08014330                memset
 .text._exit    0x08014340        0x4 c:/program files (x86)/embitz/2.10/share/armgcc/bin/../lib/gcc/arm-none-eabi/9.3.1/../../../../arm-none-eabi/lib/thumb/v6-m/nofp\libnosys.a(_exit.o)
                0x08014340                _exit
 *(.glue_7)
 .glue_7        0x08014344        0x0 linker stubs
 *(.glue_7t)
 .glue_7t       0x08014344        0x0 linker stubs
 *(.eh_frame)
 .eh_frame      0x08014344        0x0 c:/program files (x86)/embitz/2.10/share/armgcc/bin/../lib/gcc/arm-none-eabi/9.3.1/thumb/v6-m/nofp/crtbegin.o
 .eh_frame      0x08014344        0x4 c:/program files (x86)/embitz/2.10/share/armgcc/bin/../lib/gcc/arm-none-eabi/9.3.1/thumb/v6-m/nofp/crtend.o
 *(.init)
 .init          0x08014348        0x4 c:/program files (x86)/embitz/2.10/share/armgcc/bin/../lib/gcc/arm-none-eabi/9.3.1/thumb/v6-m/nofp/crti.o
                0x08014348                _init
 .init          0x0801434c        0x8 c:/program files (x86)/embitz/2.10/share/armgcc/bin/../lib/gcc/arm-none-eabi/9.3.1/thumb/v6-m/nofp/crtn.o
 *(.fini)
 .fini          0x08014354        0x4 c:/program files (x86)/embitz/2.10/share/armgcc/bin/../lib/gcc/arm-none-eabi/9.3.1/thumb/v6-m/nofp/crti.o
                0x08014354                _fini
 .fini          0x08014358        0x8 c:/program files (x86)/embitz/2.10/share/armgcc/bin/../lib/gcc/arm-none-eabi/9.3.1/thumb/v6-m/nofp/crtn.o
                0x08014360                . = ALIGN (0x4)
                0x08014360                _etext = .

.vfp11_veneer   0x08014360        0x0
 .vfp11_veneer  0x08014360        0x0 linker stubs

.v4_bx          0x08014360        0x0
 .v4_bx         0x08014360        0x0 linker stubs

.iplt           0x08014360        0x0
 .iplt          0x08014360        0x0 c:/program files (x86)/embitz/2.10/share/armgcc/bin/../lib/gcc/arm-none-eabi/9.3.1/thumb/v6-m/nofp/crtbegin.o

.RamFunc        0x08014360      0x338
 .RamFunc       0x08014360      0x338 obj\debug\hal\src\stm32l0xx_hal_flash_ramfunc.o
                0x08014360                HAL_FLASHEx_EnableRunPowerDown
                0x08014390                HAL_FLASHEx_DisableRunPowerDown
                0x080143c0                HAL_FLASHEx_HalfPageProgram
                0x0801446c                HAL_FLASHEx_GetError

.rodata         0x08014698      0x3a0
                0x08014698                . = ALIGN (0x4)
 *(.rodata)
 .rodata        0x08014698       0x46 obj\debug\src\bootloader_utils.o
 *(.rodata*)
 *fill*         0x080146de        0x2 
 .rodata.HAL_DMA_UnRegisterCallback
                0x080146e0       0x14 obj\debug\hal\src\stm32l0xx_hal_dma.o
 .rodata.HAL_RCCEx_GetPeriphCLKFreq
                0x080146f4       0x84 obj\debug\hal\src\stm32l0xx_hal_rcc_ex.o
 .rodata.UART_SetConfig
                0x08014778       0x48 obj\debug\hal\src\stm32l0xx_hal_uart.o
 .rodata.USART_SetConfig
                0x080147c0       0x24 obj\debug\hal\src\stm32l0xx_hal_usart.o
 .rodata.bootloader_mode_handler
                0x080147e4       0xd4 obj\debug\src\bootloader_utils.o
 .rodata.com_serial_tx_irq_USB
                0x080148b8       0x2c obj\debug\src\drv_serial_port.o
 .rodata.AHBPrescTable
                0x080148e4       0x10 obj\debug\src\system_stm32l0xx.o
                0x080148e4                AHBPrescTable
 .rodata.APBPrescTable
                0x080148f4        0x8 obj\debug\src\system_stm32l0xx.o
                0x080148f4                APBPrescTable
 .rodata.PLLMulTable
                0x080148fc        0x9 obj\debug\src\system_stm32l0xx.o
                0x080148fc                PLLMulTable
 *fill*         0x08014905        0x3 
 .rodata.EP0_SETUP
                0x08014908       0x30 obj\debug\src\usb_functions.o
 .rodata.USB_DeviceDescriptor_msc
                0x08014938       0x12 obj\debug\src\usbdesc.o
                0x08014938                USB_DeviceDescriptor_msc
 .rodata.dd_msc
                0x0801494a        0x2 obj\debug\src\usbdesc.o
                0x0801494a                dd_msc
 .rodata.USB_DeviceDescriptor_cdc
                0x0801494c       0x12 obj\debug\src\usbdesc.o
                0x0801494c                USB_DeviceDescriptor_cdc
 *fill*         0x0801495e        0x2 
 .rodata.USB_ConfigDescriptor_cdc
                0x08014960       0x43 obj\debug\src\usbdesc.o
                0x08014960                USB_ConfigDescriptor_cdc
 *fill*         0x080149a3        0x1 
 .rodata.USB_DeviceDescriptor_hid
                0x080149a4       0x12 obj\debug\src\usbdesc.o
                0x080149a4                USB_DeviceDescriptor_hid
 *fill*         0x080149b6        0x2 
 .rodata.HidDescriptor
                0x080149b8        0x9 obj\debug\src\usbdesc.o
                0x080149b8                HidDescriptor
 *fill*         0x080149c1        0x3 
 .rodata.ReportDescriptor
                0x080149c4       0x3f obj\debug\src\usbdesc.o
                0x080149c4                ReportDescriptor
 *fill*         0x08014a03        0x1 
 .rodata.USB_StringDescriptor
                0x08014a04       0x2e obj\debug\src\usbdesc.o
                0x08014a04                USB_StringDescriptor
 *fill*         0x08014a32        0x2 
 .rodata._global_impure_ptr
                0x08014a34        0x4 c:/program files (x86)/embitz/2.10/share/armgcc/bin/../lib/gcc/arm-none-eabi/9.3.1/../../../../arm-none-eabi/lib/thumb/v6-m/nofp\libg_nano.a(lib_a-impure.o)
                0x08014a34                _global_impure_ptr
                0x08014a38                . = ALIGN (0x4)

.ARM.extab      0x08014a38        0x0
 *(.ARM.extab* .gnu.linkonce.armextab.*)
 .ARM.extab     0x08014a38        0x0 c:/program files (x86)/embitz/2.10/share/armgcc/bin/../lib/gcc/arm-none-eabi/9.3.1/../../../../arm-none-eabi/lib/thumb/v6-m/nofp/crt0.o
 .ARM.extab     0x08014a38        0x0 c:/program files (x86)/embitz/2.10/share/armgcc/bin/../lib/gcc/arm-none-eabi/9.3.1/thumb/v6-m/nofp\libgcc.a(_udivmoddi4.o)

.ARM            0x08014a38        0x8
                0x08014a38                __exidx_start = .
 *(.ARM.exidx*)
 .ARM.exidx     0x08014a38        0x8 c:/program files (x86)/embitz/2.10/share/armgcc/bin/../lib/gcc/arm-none-eabi/9.3.1/../../../../arm-none-eabi/lib/thumb/v6-m/nofp/crt0.o
                                 0x10 (size before relaxing)
 .ARM.exidx     0x08014a40        0x0 c:/program files (x86)/embitz/2.10/share/armgcc/bin/../lib/gcc/arm-none-eabi/9.3.1/thumb/v6-m/nofp\libgcc.a(_udivmoddi4.o)
                                  0x8 (size before relaxing)
                0x08014a40                __exidx_end = .

.rel.dyn        0x08014a40        0x0
 .rel.iplt      0x08014a40        0x0 c:/program files (x86)/embitz/2.10/share/armgcc/bin/../lib/gcc/arm-none-eabi/9.3.1/thumb/v6-m/nofp/crtbegin.o

.preinit_array  0x08014a40        0x0
                0x08014a40                PROVIDE (__preinit_array_start = .)
 *(.preinit_array*)
                0x08014a40                PROVIDE (__preinit_array_end = .)

.init_array     0x08014a40        0x4
                0x08014a40                PROVIDE (__init_array_start = .)
 *(SORT_BY_NAME(.init_array.*))
 *(.init_array*)
 .init_array    0x08014a40        0x4 c:/program files (x86)/embitz/2.10/share/armgcc/bin/../lib/gcc/arm-none-eabi/9.3.1/thumb/v6-m/nofp/crtbegin.o
                0x08014a44                PROVIDE (__init_array_end = .)

.fini_array     0x08014a44        0x4
                [!provide]                PROVIDE (__fini_array_start = .)
 *(SORT_BY_NAME(.fini_array.*))
 *(.fini_array*)
 .fini_array    0x08014a44        0x4 c:/program files (x86)/embitz/2.10/share/armgcc/bin/../lib/gcc/arm-none-eabi/9.3.1/thumb/v6-m/nofp/crtbegin.o
                [!provide]                PROVIDE (__fini_array_end = .)
                0x08014a48                _sidata = LOADADDR (.data)

.data           0x20000100       0x74 load address 0x08014a48
                0x20000100                . = ALIGN (0x4)
                0x20000100                _sdata = .
 *(.data)
 .data          0x20000100        0x0 c:/program files (x86)/embitz/2.10/share/armgcc/bin/../lib/gcc/arm-none-eabi/9.3.1/thumb/v6-m/nofp/crti.o
 .data          0x20000100        0x4 c:/program files (x86)/embitz/2.10/share/armgcc/bin/../lib/gcc/arm-none-eabi/9.3.1/thumb/v6-m/nofp/crtbegin.o
                0x20000100                __dso_handle
 .data          0x20000104        0x0 c:/program files (x86)/embitz/2.10/share/armgcc/bin/../lib/gcc/arm-none-eabi/9.3.1/../../../../arm-none-eabi/lib/thumb/v6-m/nofp/crt0.o
 .data          0x20000104        0x0 obj\debug\src\startup_stm32l053xx.o
 .data          0x20000104        0x0 obj\debug\hal\src\stm32l0xx_hal_adc.o
 .data          0x20000104        0x0 obj\debug\hal\src\stm32l0xx_hal_adc_ex.o
 .data          0x20000104        0x0 obj\debug\hal\src\stm32l0xx_hal_comp.o
 .data          0x20000104        0x0 obj\debug\hal\src\stm32l0xx_hal_comp_ex.o
 .data          0x20000104        0x0 obj\debug\hal\src\stm32l0xx_hal_cortex.o
 .data          0x20000104        0x0 obj\debug\hal\src\stm32l0xx_hal_crc.o
 .data          0x20000104        0x0 obj\debug\hal\src\stm32l0xx_hal_crc_ex.o
 .data          0x20000104        0x0 obj\debug\hal\src\stm32l0xx_hal_cryp.o
 .data          0x20000104        0x0 obj\debug\hal\src\stm32l0xx_hal_cryp_ex.o
 .data          0x20000104        0x0 obj\debug\hal\src\stm32l0xx_hal_dac.o
 .data          0x20000104        0x0 obj\debug\hal\src\stm32l0xx_hal_dac_ex.o
 .data          0x20000104        0x0 obj\debug\hal\src\stm32l0xx_hal_dma.o
 .data          0x20000104        0x0 obj\debug\hal\src\stm32l0xx_hal_firewall.o
 .data          0x20000104        0x0 obj\debug\hal\src\stm32l0xx_hal_flash.o
 .data          0x20000104        0x0 obj\debug\hal\src\stm32l0xx_hal_flash_ex.o
 .data          0x20000104        0x0 obj\debug\hal\src\stm32l0xx_hal_flash_ramfunc.o
 .data          0x20000104        0x0 obj\debug\hal\src\stm32l0xx_hal_gpio.o
 .data          0x20000104        0x0 obj\debug\hal\src\stm32l0xx_hal_i2c.o
 .data          0x20000104        0x0 obj\debug\hal\src\stm32l0xx_hal_i2c_ex.o
 .data          0x20000104        0x0 obj\debug\hal\src\stm32l0xx_hal_i2s.o
 .data          0x20000104        0x0 obj\debug\hal\src\stm32l0xx_hal_irda.o
 .data          0x20000104        0x0 obj\debug\hal\src\stm32l0xx_hal_iwdg.o
 .data          0x20000104        0x0 obj\debug\hal\src\stm32l0xx_hal_lcd.o
 .data          0x20000104        0x0 obj\debug\hal\src\stm32l0xx_hal_lptim.o
 .data          0x20000104        0x0 obj\debug\hal\src\stm32l0xx_hal_pcd.o
 .data          0x20000104        0x0 obj\debug\hal\src\stm32l0xx_hal_pcd_ex.o
 .data          0x20000104        0x0 obj\debug\hal\src\stm32l0xx_hal_pwr.o
 .data          0x20000104        0x0 obj\debug\hal\src\stm32l0xx_hal_pwr_ex.o
 .data          0x20000104        0x0 obj\debug\hal\src\stm32l0xx_hal_rcc.o
 .data          0x20000104        0x0 obj\debug\hal\src\stm32l0xx_hal_rcc_ex.o
 .data          0x20000104        0x0 obj\debug\hal\src\stm32l0xx_hal_rng.o
 .data          0x20000104        0x0 obj\debug\hal\src\stm32l0xx_hal_rtc.o
 .data          0x20000104        0x0 obj\debug\hal\src\stm32l0xx_hal_rtc_ex.o
 .data          0x20000104        0x0 obj\debug\hal\src\stm32l0xx_hal_smartcard.o
 .data          0x20000104        0x0 obj\debug\hal\src\stm32l0xx_hal_smartcard_ex.o
 .data          0x20000104        0x0 obj\debug\hal\src\stm32l0xx_hal_smbus.o
 .data          0x20000104        0x0 obj\debug\hal\src\stm32l0xx_hal_spi.o
 .data          0x20000104        0x0 obj\debug\hal\src\stm32l0xx_hal_tim.o
 .data          0x20000104        0x0 obj\debug\hal\src\stm32l0xx_hal_tim_ex.o
 .data          0x20000104        0x0 obj\debug\hal\src\stm32l0xx_hal_tsc.o
 .data          0x20000104        0x0 obj\debug\hal\src\stm32l0xx_hal_uart.o
 .data          0x20000104        0x0 obj\debug\hal\src\stm32l0xx_hal_uart_ex.o
 .data          0x20000104        0x0 obj\debug\hal\src\stm32l0xx_hal_usart.o
 .data          0x20000104        0x0 obj\debug\hal\src\stm32l0xx_hal_wwdg.o
 .data          0x20000104        0x0 obj\debug\src\bootloader_api_push.o
 .data          0x20000104        0x0 obj\debug\src\bootloader_utils.o
 .data          0x20000104        0x0 obj\debug\src\convert.o
 .data          0x20000104        0x0 obj\debug\src\drv_clock.o
 .data          0x20000104        0x0 obj\debug\src\drv_flash.o
 .data          0x20000104        0x0 obj\debug\src\drv_serial_port.o
 .data          0x20000104        0x0 obj\debug\src\drv_uart.o
 .data          0x20000104        0x0 obj\debug\src\drv_usb_main.o
 .data          0x20000104        0x0 obj\debug\src\main.o
 .data          0x20000104        0x0 obj\debug\src\sim.o
 .data          0x20000104        0x0 obj\debug\hal\src\stm32l0xx_hal.o
 .data          0x20000104        0x0 obj\debug\src\system_stm32l0xx.o
 .data          0x20000104        0x0 obj\debug\src\usb_cdc.o
 .data          0x20000104        0x0 obj\debug\src\usb_functions.o
 .data          0x20000104        0x0 obj\debug\src\usb_utilities.o
 .data          0x20000104        0x0 obj\debug\src\usbdesc.o
 .data          0x20000104        0x0 c:/program files (x86)/embitz/2.10/share/armgcc/bin/../lib/gcc/arm-none-eabi/9.3.1/thumb/v6-m/nofp\libgcc.a(_udivsi3.o)
 .data          0x20000104        0x0 c:/program files (x86)/embitz/2.10/share/armgcc/bin/../lib/gcc/arm-none-eabi/9.3.1/thumb/v6-m/nofp\libgcc.a(_divsi3.o)
 .data          0x20000104        0x0 c:/program files (x86)/embitz/2.10/share/armgcc/bin/../lib/gcc/arm-none-eabi/9.3.1/thumb/v6-m/nofp\libgcc.a(_dvmd_tls.o)
 .data          0x20000104        0x0 c:/program files (x86)/embitz/2.10/share/armgcc/bin/../lib/gcc/arm-none-eabi/9.3.1/thumb/v6-m/nofp\libgcc.a(_aeabi_uldivmod.o)
 .data          0x20000104        0x0 c:/program files (x86)/embitz/2.10/share/armgcc/bin/../lib/gcc/arm-none-eabi/9.3.1/thumb/v6-m/nofp\libgcc.a(_udivmoddi4.o)
 .data          0x20000104        0x0 c:/program files (x86)/embitz/2.10/share/armgcc/bin/../lib/gcc/arm-none-eabi/9.3.1/thumb/v6-m/nofp\libgcc.a(_clzdi2.o)
 .data          0x20000104        0x0 c:/program files (x86)/embitz/2.10/share/armgcc/bin/../lib/gcc/arm-none-eabi/9.3.1/thumb/v6-m/nofp\libgcc.a(_clzsi2.o)
 .data          0x20000104        0x0 c:/program files (x86)/embitz/2.10/share/armgcc/bin/../lib/gcc/arm-none-eabi/9.3.1/../../../../arm-none-eabi/lib/thumb/v6-m/nofp\libg_nano.a(lib_a-exit.o)
 .data          0x20000104        0x0 c:/program files (x86)/embitz/2.10/share/armgcc/bin/../lib/gcc/arm-none-eabi/9.3.1/../../../../arm-none-eabi/lib/thumb/v6-m/nofp\libg_nano.a(lib_a-impure.o)
 .data          0x20000104        0x0 c:/program files (x86)/embitz/2.10/share/armgcc/bin/../lib/gcc/arm-none-eabi/9.3.1/../../../../arm-none-eabi/lib/thumb/v6-m/nofp\libg_nano.a(lib_a-init.o)
 .data          0x20000104        0x0 c:/program files (x86)/embitz/2.10/share/armgcc/bin/../lib/gcc/arm-none-eabi/9.3.1/../../../../arm-none-eabi/lib/thumb/v6-m/nofp\libg_nano.a(lib_a-memset.o)
 .data          0x20000104        0x0 c:/program files (x86)/embitz/2.10/share/armgcc/bin/../lib/gcc/arm-none-eabi/9.3.1/../../../../arm-none-eabi/lib/thumb/v6-m/nofp\libnosys.a(_exit.o)
 .data          0x20000104        0x0 c:/program files (x86)/embitz/2.10/share/armgcc/bin/../lib/gcc/arm-none-eabi/9.3.1/thumb/v6-m/nofp/crtend.o
 .data          0x20000104        0x0 c:/program files (x86)/embitz/2.10/share/armgcc/bin/../lib/gcc/arm-none-eabi/9.3.1/thumb/v6-m/nofp/crtn.o
 *(.data*)
 .data.bootloader_api_table
                0x20000104        0x4 obj\debug\src\bootloader_api_push.o
                0x20000104                bootloader_api_table
 .data.SystemCoreClock
                0x20000108        0x4 obj\debug\src\system_stm32l0xx.o
                0x20000108                SystemCoreClock
 .data.dd_hid   0x2000010c        0x2 obj\debug\src\usbdesc.o
                0x2000010c                dd_hid
 *fill*         0x2000010e        0x2 
 .data._impure_ptr
                0x20000110        0x4 c:/program files (x86)/embitz/2.10/share/armgcc/bin/../lib/gcc/arm-none-eabi/9.3.1/../../../../arm-none-eabi/lib/thumb/v6-m/nofp\libg_nano.a(lib_a-impure.o)
                0x20000110                _impure_ptr
 .data.impure_data
                0x20000114       0x60 c:/program files (x86)/embitz/2.10/share/armgcc/bin/../lib/gcc/arm-none-eabi/9.3.1/../../../../arm-none-eabi/lib/thumb/v6-m/nofp\libg_nano.a(lib_a-impure.o)
                0x20000174                . = ALIGN (0x4)
                0x20000174                _edata = .

.igot.plt       0x20000174        0x0 load address 0x08014abc
 .igot.plt      0x20000174        0x0 c:/program files (x86)/embitz/2.10/share/armgcc/bin/../lib/gcc/arm-none-eabi/9.3.1/thumb/v6-m/nofp/crtbegin.o
                0x20000174                . = ALIGN (0x4)

.bss            0x20000174      0x824 load address 0x08014abc
                0x20000174                _sbss = .
                0x20000174                __bss_start__ = _sbss
 *(.bss)
 .bss           0x20000174        0x0 c:/program files (x86)/embitz/2.10/share/armgcc/bin/../lib/gcc/arm-none-eabi/9.3.1/thumb/v6-m/nofp/crti.o
 .bss           0x20000174       0x1c c:/program files (x86)/embitz/2.10/share/armgcc/bin/../lib/gcc/arm-none-eabi/9.3.1/thumb/v6-m/nofp/crtbegin.o
 .bss           0x20000190        0x0 c:/program files (x86)/embitz/2.10/share/armgcc/bin/../lib/gcc/arm-none-eabi/9.3.1/../../../../arm-none-eabi/lib/thumb/v6-m/nofp/crt0.o
 .bss           0x20000190        0x0 obj\debug\src\startup_stm32l053xx.o
 .bss           0x20000190        0x0 obj\debug\hal\src\stm32l0xx_hal_adc.o
 .bss           0x20000190        0x0 obj\debug\hal\src\stm32l0xx_hal_adc_ex.o
 .bss           0x20000190        0x0 obj\debug\hal\src\stm32l0xx_hal_comp.o
 .bss           0x20000190        0x0 obj\debug\hal\src\stm32l0xx_hal_comp_ex.o
 .bss           0x20000190        0x0 obj\debug\hal\src\stm32l0xx_hal_cortex.o
 .bss           0x20000190        0x0 obj\debug\hal\src\stm32l0xx_hal_crc.o
 .bss           0x20000190        0x0 obj\debug\hal\src\stm32l0xx_hal_crc_ex.o
 .bss           0x20000190        0x0 obj\debug\hal\src\stm32l0xx_hal_cryp.o
 .bss           0x20000190        0x0 obj\debug\hal\src\stm32l0xx_hal_cryp_ex.o
 .bss           0x20000190        0x0 obj\debug\hal\src\stm32l0xx_hal_dac.o
 .bss           0x20000190        0x0 obj\debug\hal\src\stm32l0xx_hal_dac_ex.o
 .bss           0x20000190        0x0 obj\debug\hal\src\stm32l0xx_hal_dma.o
 .bss           0x20000190        0x0 obj\debug\hal\src\stm32l0xx_hal_firewall.o
 .bss           0x20000190        0x0 obj\debug\hal\src\stm32l0xx_hal_flash.o
 .bss           0x20000190        0x0 obj\debug\hal\src\stm32l0xx_hal_flash_ex.o
 .bss           0x20000190        0x0 obj\debug\hal\src\stm32l0xx_hal_flash_ramfunc.o
 .bss           0x20000190        0x0 obj\debug\hal\src\stm32l0xx_hal_gpio.o
 .bss           0x20000190        0x0 obj\debug\hal\src\stm32l0xx_hal_i2c.o
 .bss           0x20000190        0x0 obj\debug\hal\src\stm32l0xx_hal_i2c_ex.o
 .bss           0x20000190        0x0 obj\debug\hal\src\stm32l0xx_hal_i2s.o
 .bss           0x20000190        0x0 obj\debug\hal\src\stm32l0xx_hal_irda.o
 .bss           0x20000190        0x0 obj\debug\hal\src\stm32l0xx_hal_iwdg.o
 .bss           0x20000190        0x0 obj\debug\hal\src\stm32l0xx_hal_lcd.o
 .bss           0x20000190        0x0 obj\debug\hal\src\stm32l0xx_hal_lptim.o
 .bss           0x20000190        0x0 obj\debug\hal\src\stm32l0xx_hal_pcd.o
 .bss           0x20000190        0x0 obj\debug\hal\src\stm32l0xx_hal_pcd_ex.o
 .bss           0x20000190        0x0 obj\debug\hal\src\stm32l0xx_hal_pwr.o
 .bss           0x20000190        0x0 obj\debug\hal\src\stm32l0xx_hal_pwr_ex.o
 .bss           0x20000190        0x0 obj\debug\hal\src\stm32l0xx_hal_rcc.o
 .bss           0x20000190        0x0 obj\debug\hal\src\stm32l0xx_hal_rcc_ex.o
 .bss           0x20000190        0x0 obj\debug\hal\src\stm32l0xx_hal_rng.o
 .bss           0x20000190        0x0 obj\debug\hal\src\stm32l0xx_hal_rtc.o
 .bss           0x20000190        0x0 obj\debug\hal\src\stm32l0xx_hal_rtc_ex.o
 .bss           0x20000190        0x0 obj\debug\hal\src\stm32l0xx_hal_smartcard.o
 .bss           0x20000190        0x0 obj\debug\hal\src\stm32l0xx_hal_smartcard_ex.o
 .bss           0x20000190        0x0 obj\debug\hal\src\stm32l0xx_hal_smbus.o
 .bss           0x20000190        0x0 obj\debug\hal\src\stm32l0xx_hal_spi.o
 .bss           0x20000190        0x0 obj\debug\hal\src\stm32l0xx_hal_tim.o
 .bss           0x20000190        0x0 obj\debug\hal\src\stm32l0xx_hal_tim_ex.o
 .bss           0x20000190        0x0 obj\debug\hal\src\stm32l0xx_hal_tsc.o
 .bss           0x20000190        0x0 obj\debug\hal\src\stm32l0xx_hal_uart.o
 .bss           0x20000190        0x0 obj\debug\hal\src\stm32l0xx_hal_uart_ex.o
 .bss           0x20000190        0x0 obj\debug\hal\src\stm32l0xx_hal_usart.o
 .bss           0x20000190        0x0 obj\debug\hal\src\stm32l0xx_hal_wwdg.o
 .bss           0x20000190        0x0 obj\debug\src\bootloader_api_push.o
 .bss           0x20000190        0x0 obj\debug\src\bootloader_utils.o
 .bss           0x20000190        0x0 obj\debug\src\convert.o
 .bss           0x20000190        0x0 obj\debug\src\drv_clock.o
 .bss           0x20000190        0x0 obj\debug\src\drv_flash.o
 .bss           0x20000190        0x0 obj\debug\src\drv_serial_port.o
 .bss           0x20000190        0x0 obj\debug\src\drv_uart.o
 .bss           0x20000190        0x0 obj\debug\src\drv_usb_main.o
 .bss           0x20000190        0x0 obj\debug\src\main.o
 .bss           0x20000190        0x0 obj\debug\src\sim.o
 .bss           0x20000190        0x0 obj\debug\hal\src\stm32l0xx_hal.o
 .bss           0x20000190        0x0 obj\debug\src\system_stm32l0xx.o
 .bss           0x20000190        0x0 obj\debug\src\usb_cdc.o
 .bss           0x20000190        0x0 obj\debug\src\usb_functions.o
 .bss           0x20000190        0x0 obj\debug\src\usb_utilities.o
 .bss           0x20000190        0x0 obj\debug\src\usbdesc.o
 .bss           0x20000190        0x0 c:/program files (x86)/embitz/2.10/share/armgcc/bin/../lib/gcc/arm-none-eabi/9.3.1/thumb/v6-m/nofp\libgcc.a(_udivsi3.o)
 .bss           0x20000190        0x0 c:/program files (x86)/embitz/2.10/share/armgcc/bin/../lib/gcc/arm-none-eabi/9.3.1/thumb/v6-m/nofp\libgcc.a(_divsi3.o)
 .bss           0x20000190        0x0 c:/program files (x86)/embitz/2.10/share/armgcc/bin/../lib/gcc/arm-none-eabi/9.3.1/thumb/v6-m/nofp\libgcc.a(_dvmd_tls.o)
 .bss           0x20000190        0x0 c:/program files (x86)/embitz/2.10/share/armgcc/bin/../lib/gcc/arm-none-eabi/9.3.1/thumb/v6-m/nofp\libgcc.a(_aeabi_uldivmod.o)
 .bss           0x20000190        0x0 c:/program files (x86)/embitz/2.10/share/armgcc/bin/../lib/gcc/arm-none-eabi/9.3.1/thumb/v6-m/nofp\libgcc.a(_udivmoddi4.o)
 .bss           0x20000190        0x0 c:/program files (x86)/embitz/2.10/share/armgcc/bin/../lib/gcc/arm-none-eabi/9.3.1/thumb/v6-m/nofp\libgcc.a(_clzdi2.o)
 .bss           0x20000190        0x0 c:/program files (x86)/embitz/2.10/share/armgcc/bin/../lib/gcc/arm-none-eabi/9.3.1/thumb/v6-m/nofp\libgcc.a(_clzsi2.o)
 .bss           0x20000190        0x0 c:/program files (x86)/embitz/2.10/share/armgcc/bin/../lib/gcc/arm-none-eabi/9.3.1/../../../../arm-none-eabi/lib/thumb/v6-m/nofp\libg_nano.a(lib_a-exit.o)
 .bss           0x20000190        0x0 c:/program files (x86)/embitz/2.10/share/armgcc/bin/../lib/gcc/arm-none-eabi/9.3.1/../../../../arm-none-eabi/lib/thumb/v6-m/nofp\libg_nano.a(lib_a-impure.o)
 .bss           0x20000190        0x0 c:/program files (x86)/embitz/2.10/share/armgcc/bin/../lib/gcc/arm-none-eabi/9.3.1/../../../../arm-none-eabi/lib/thumb/v6-m/nofp\libg_nano.a(lib_a-init.o)
 .bss           0x20000190        0x0 c:/program files (x86)/embitz/2.10/share/armgcc/bin/../lib/gcc/arm-none-eabi/9.3.1/../../../../arm-none-eabi/lib/thumb/v6-m/nofp\libg_nano.a(lib_a-memset.o)
 .bss           0x20000190        0x0 c:/program files (x86)/embitz/2.10/share/armgcc/bin/../lib/gcc/arm-none-eabi/9.3.1/../../../../arm-none-eabi/lib/thumb/v6-m/nofp\libnosys.a(_exit.o)
 .bss           0x20000190        0x0 c:/program files (x86)/embitz/2.10/share/armgcc/bin/../lib/gcc/arm-none-eabi/9.3.1/thumb/v6-m/nofp/crtend.o
 .bss           0x20000190        0x0 c:/program files (x86)/embitz/2.10/share/armgcc/bin/../lib/gcc/arm-none-eabi/9.3.1/thumb/v6-m/nofp/crtn.o
 *(.bss*)
 .bss.module_state
                0x20000190        0x1 obj\debug\src\bootloader_utils.o
                0x20000190                module_state
 *fill*         0x20000191        0x1 
 .bss.fw_count  0x20000192        0x2 obj\debug\src\bootloader_utils.o
                0x20000192                fw_count
 .bss.test      0x20000194        0x1 obj\debug\src\bootloader_utils.o
                0x20000194                test
 .bss.mode      0x20000195        0x1 obj\debug\src\bootloader_utils.o
                0x20000195                mode
 .bss.convert_strlen
                0x20000196        0x1 obj\debug\src\convert.o
                0x20000196                convert_strlen
 *fill*         0x20000197        0x1 
 .bss.SYSCLK_1MS
                0x20000198        0x4 obj\debug\src\drv_clock.o
                0x20000198                SYSCLK_1MS
 .bss.rx_circle_point
                0x2000019c        0x2 obj\debug\src\drv_serial_port.o
                0x2000019c                rx_circle_point
 .bss.rx_circle_count
                0x2000019e        0x2 obj\debug\src\drv_serial_port.o
                0x2000019e                rx_circle_count
 .bss.sim_read_point
                0x200001a0        0x2 obj\debug\src\drv_serial_port.o
                0x200001a0                sim_read_point
 .bss.sim_sending
                0x200001a2        0x1 obj\debug\src\drv_serial_port.o
                0x200001a2                sim_sending
 .bss.sim_needsend
                0x200001a3        0x1 obj\debug\src\drv_serial_port.o
                0x200001a3                sim_needsend
 .bss.EP1_busy  0x200001a4        0x1 obj\debug\src\usb_cdc.o
                0x200001a4                EP1_busy
 .bss.sendempty
                0x200001a5        0x1 obj\debug\src\usb_cdc.o
                0x200001a5                sendempty
 .bss.f         0x200001a6        0x1 obj\debug\src\usb_cdc.o
                0x200001a6                f
 *fill*         0x200001a7        0x1 
 .bss.nd        0x200001a8        0x4 obj\debug\src\usb_functions.o
                0x200001a8                nd
 .bss.sbmr      0x200001ac        0x4 obj\debug\src\usb_functions.o
                0x200001ac                sbmr
 .bss.lc        0x200001b0        0x1 obj\debug\src\usb_functions.o
                0x200001b0                lc
 .bss.usb_send  0x200001b1        0x1 obj\debug\src\usb_utilities.o
                0x200001b1                usb_send
 *fill*         0x200001b2        0x2 
 .bss.COUNT     0x200001b4        0x4 obj\debug\src\usb_utilities.o
                0x200001b4                COUNT
 *(COMMON)
 COMMON         0x200001b8       0x18 obj\debug\hal\src\stm32l0xx_hal_flash.o
                0x200001b8                pFlash
 COMMON         0x200001d0        0x1 obj\debug\src\bootloader_utils.o
                0x200001d0                c
 *fill*         0x200001d1        0x3 
 COMMON         0x200001d4        0xc obj\debug\src\convert.o
                0x200001d4                convert_str
 COMMON         0x200001e0      0x495 obj\debug\src\drv_serial_port.o
                0x200001e0                x
                0x200001e4                COM0
                0x20000428                rxlock
                0x2000042c                COM1
                0x20000670                ep1_busy_timer
                0x20000674                txlock
 *fill*         0x20000675        0x3 
 COMMON         0x20000678       0x80 obj\debug\src\drv_uart.o
                0x20000678                uart_handle
 COMMON         0x200006f8        0x4 obj\debug\hal\src\stm32l0xx_hal.o
                0x200006f8                uwTick
 COMMON         0x200006fc       0x88 obj\debug\src\usb_cdc.o
                0x200006fc                pDataRX
                0x2000073c                line_coding
                0x20000744                pDataTX
 COMMON         0x20000784      0x10c obj\debug\src\usb_functions.o
                0x20000784                EP0_Data
                0x200007e8                EP0Buf
                0x2000087c                USB_DeviceAddress
                0x20000880                SetupPacket
                0x20000888                EP0Data
 COMMON         0x20000890      0x108 obj\debug\src\usb_utilities.o
                0x20000890                FW_PE_ADDR
                0x20000892                FW_LEN
                0x20000894                FW_BUF
                0x20000994                FW_ADDR
                0x20000998                . = ALIGN (0x4)
                0x20000998                _ebss = .
                0x20000998                __bss_end__ = _ebss

.heap           0x20000998        0x0 load address 0x08014abc
                0x20000998                . = ALIGN (0x4)
                [!provide]                PROVIDE (end = .)
                [!provide]                PROVIDE (_end = .)
 *(.heap*)
                0x20000998                . = (. + _Min_Heap_Size)
                0x20000998                __HeapLimit = .
                0x20000998                . = ALIGN (0x4)

.ARM.attributes
                0x00000000       0x28
 *(.ARM.attributes)
 .ARM.attributes
                0x00000000       0x1e c:/program files (x86)/embitz/2.10/share/armgcc/bin/../lib/gcc/arm-none-eabi/9.3.1/thumb/v6-m/nofp/crti.o
 .ARM.attributes
                0x0000001e       0x2c c:/program files (x86)/embitz/2.10/share/armgcc/bin/../lib/gcc/arm-none-eabi/9.3.1/thumb/v6-m/nofp/crtbegin.o
 .ARM.attributes
                0x0000004a       0x1b c:/program files (x86)/embitz/2.10/share/armgcc/bin/../lib/gcc/arm-none-eabi/9.3.1/../../../../arm-none-eabi/lib/thumb/v6-m/nofp/crt0.o
 .ARM.attributes
                0x00000065       0x22 obj\debug\src\startup_stm32l053xx.o
 .ARM.attributes
                0x00000087       0x32 obj\debug\hal\src\stm32l0xx_hal_adc.o
 .ARM.attributes
                0x000000b9       0x32 obj\debug\hal\src\stm32l0xx_hal_adc_ex.o
 .ARM.attributes
                0x000000eb       0x32 obj\debug\hal\src\stm32l0xx_hal_comp.o
 .ARM.attributes
                0x0000011d       0x32 obj\debug\hal\src\stm32l0xx_hal_comp_ex.o
 .ARM.attributes
                0x0000014f       0x2c obj\debug\hal\src\stm32l0xx_hal_cortex.o
 .ARM.attributes
                0x0000017b       0x32 obj\debug\hal\src\stm32l0xx_hal_crc.o
 .ARM.attributes
                0x000001ad       0x32 obj\debug\hal\src\stm32l0xx_hal_crc_ex.o
 .ARM.attributes
                0x000001df       0x32 obj\debug\hal\src\stm32l0xx_hal_cryp.o
 .ARM.attributes
                0x00000211       0x32 obj\debug\hal\src\stm32l0xx_hal_cryp_ex.o
 .ARM.attributes
                0x00000243       0x32 obj\debug\hal\src\stm32l0xx_hal_dac.o
 .ARM.attributes
                0x00000275       0x32 obj\debug\hal\src\stm32l0xx_hal_dac_ex.o
 .ARM.attributes
                0x000002a7       0x2c obj\debug\hal\src\stm32l0xx_hal_dma.o
 .ARM.attributes
                0x000002d3       0x32 obj\debug\hal\src\stm32l0xx_hal_firewall.o
 .ARM.attributes
                0x00000305       0x2c obj\debug\hal\src\stm32l0xx_hal_flash.o
 .ARM.attributes
                0x00000331       0x2c obj\debug\hal\src\stm32l0xx_hal_flash_ex.o
 .ARM.attributes
                0x0000035d       0x2c obj\debug\hal\src\stm32l0xx_hal_flash_ramfunc.o
 .ARM.attributes
                0x00000389       0x2c obj\debug\hal\src\stm32l0xx_hal_gpio.o
 .ARM.attributes
                0x000003b5       0x32 obj\debug\hal\src\stm32l0xx_hal_i2c.o
 .ARM.attributes
                0x000003e7       0x32 obj\debug\hal\src\stm32l0xx_hal_i2c_ex.o
 .ARM.attributes
                0x00000419       0x32 obj\debug\hal\src\stm32l0xx_hal_i2s.o
 .ARM.attributes
                0x0000044b       0x32 obj\debug\hal\src\stm32l0xx_hal_irda.o
 .ARM.attributes
                0x0000047d       0x32 obj\debug\hal\src\stm32l0xx_hal_iwdg.o
 .ARM.attributes
                0x000004af       0x32 obj\debug\hal\src\stm32l0xx_hal_lcd.o
 .ARM.attributes
                0x000004e1       0x2c obj\debug\hal\src\stm32l0xx_hal_lptim.o
 .ARM.attributes
                0x0000050d       0x32 obj\debug\hal\src\stm32l0xx_hal_pcd.o
 .ARM.attributes
                0x0000053f       0x32 obj\debug\hal\src\stm32l0xx_hal_pcd_ex.o
 .ARM.attributes
                0x00000571       0x2c obj\debug\hal\src\stm32l0xx_hal_pwr.o
 .ARM.attributes
                0x0000059d       0x2c obj\debug\hal\src\stm32l0xx_hal_pwr_ex.o
 .ARM.attributes
                0x000005c9       0x2c obj\debug\hal\src\stm32l0xx_hal_rcc.o
 .ARM.attributes
                0x000005f5       0x2c obj\debug\hal\src\stm32l0xx_hal_rcc_ex.o
 .ARM.attributes
                0x00000621       0x32 obj\debug\hal\src\stm32l0xx_hal_rng.o
 .ARM.attributes
                0x00000653       0x2c obj\debug\hal\src\stm32l0xx_hal_rtc.o
 .ARM.attributes
                0x0000067f       0x2c obj\debug\hal\src\stm32l0xx_hal_rtc_ex.o
 .ARM.attributes
                0x000006ab       0x32 obj\debug\hal\src\stm32l0xx_hal_smartcard.o
 .ARM.attributes
                0x000006dd       0x32 obj\debug\hal\src\stm32l0xx_hal_smartcard_ex.o
 .ARM.attributes
                0x0000070f       0x32 obj\debug\hal\src\stm32l0xx_hal_smbus.o
 .ARM.attributes
                0x00000741       0x32 obj\debug\hal\src\stm32l0xx_hal_spi.o
 .ARM.attributes
                0x00000773       0x2c obj\debug\hal\src\stm32l0xx_hal_tim.o
 .ARM.attributes
                0x0000079f       0x2c obj\debug\hal\src\stm32l0xx_hal_tim_ex.o
 .ARM.attributes
                0x000007cb       0x32 obj\debug\hal\src\stm32l0xx_hal_tsc.o
 .ARM.attributes
                0x000007fd       0x2c obj\debug\hal\src\stm32l0xx_hal_uart.o
 .ARM.attributes
                0x00000829       0x2c obj\debug\hal\src\stm32l0xx_hal_uart_ex.o
 .ARM.attributes
                0x00000855       0x2c obj\debug\hal\src\stm32l0xx_hal_usart.o
 .ARM.attributes
                0x00000881       0x32 obj\debug\hal\src\stm32l0xx_hal_wwdg.o
 .ARM.attributes
                0x000008b3       0x2c obj\debug\src\bootloader_api_push.o
 .ARM.attributes
                0x000008df       0x2c obj\debug\src\bootloader_utils.o
 .ARM.attributes
                0x0000090b       0x2c obj\debug\src\convert.o
 .ARM.attributes
                0x00000937       0x2c obj\debug\src\drv_clock.o
 .ARM.attributes
                0x00000963       0x2c obj\debug\src\drv_flash.o
 .ARM.attributes
                0x0000098f       0x2c obj\debug\src\drv_serial_port.o
 .ARM.attributes
                0x000009bb       0x2c obj\debug\src\drv_uart.o
 .ARM.attributes
                0x000009e7       0x2c obj\debug\src\drv_usb_main.o
 .ARM.attributes
                0x00000a13       0x2c obj\debug\src\main.o
 .ARM.attributes
                0x00000a3f       0x2c obj\debug\src\sim.o
 .ARM.attributes
                0x00000a6b       0x2c obj\debug\hal\src\stm32l0xx_hal.o
 .ARM.attributes
                0x00000a97       0x2c obj\debug\src\system_stm32l0xx.o
 .ARM.attributes
                0x00000ac3       0x2c obj\debug\src\usb_cdc.o
 .ARM.attributes
                0x00000aef       0x2c obj\debug\src\usb_functions.o
 .ARM.attributes
                0x00000b1b       0x2c obj\debug\src\usb_utilities.o
 .ARM.attributes
                0x00000b47       0x32 obj\debug\src\usbdesc.o
 .ARM.attributes
                0x00000b79       0x1e c:/program files (x86)/embitz/2.10/share/armgcc/bin/../lib/gcc/arm-none-eabi/9.3.1/thumb/v6-m/nofp\libgcc.a(_udivsi3.o)
 .ARM.attributes
                0x00000b97       0x1e c:/program files (x86)/embitz/2.10/share/armgcc/bin/../lib/gcc/arm-none-eabi/9.3.1/thumb/v6-m/nofp\libgcc.a(_divsi3.o)
 .ARM.attributes
                0x00000bb5       0x1e c:/program files (x86)/embitz/2.10/share/armgcc/bin/../lib/gcc/arm-none-eabi/9.3.1/thumb/v6-m/nofp\libgcc.a(_dvmd_tls.o)
 .ARM.attributes
                0x00000bd3       0x1e c:/program files (x86)/embitz/2.10/share/armgcc/bin/../lib/gcc/arm-none-eabi/9.3.1/thumb/v6-m/nofp\libgcc.a(_aeabi_uldivmod.o)
 .ARM.attributes
                0x00000bf1       0x2c c:/program files (x86)/embitz/2.10/share/armgcc/bin/../lib/gcc/arm-none-eabi/9.3.1/thumb/v6-m/nofp\libgcc.a(_udivmoddi4.o)
 .ARM.attributes
                0x00000c1d       0x1e c:/program files (x86)/embitz/2.10/share/armgcc/bin/../lib/gcc/arm-none-eabi/9.3.1/thumb/v6-m/nofp\libgcc.a(_clzdi2.o)
 .ARM.attributes
                0x00000c3b       0x1e c:/program files (x86)/embitz/2.10/share/armgcc/bin/../lib/gcc/arm-none-eabi/9.3.1/thumb/v6-m/nofp\libgcc.a(_clzsi2.o)
 .ARM.attributes
                0x00000c59       0x2c c:/program files (x86)/embitz/2.10/share/armgcc/bin/../lib/gcc/arm-none-eabi/9.3.1/../../../../arm-none-eabi/lib/thumb/v6-m/nofp\libg_nano.a(lib_a-exit.o)
 .ARM.attributes
                0x00000c85       0x2c c:/program files (x86)/embitz/2.10/share/armgcc/bin/../lib/gcc/arm-none-eabi/9.3.1/../../../../arm-none-eabi/lib/thumb/v6-m/nofp\libg_nano.a(lib_a-impure.o)
 .ARM.attributes
                0x00000cb1       0x2c c:/program files (x86)/embitz/2.10/share/armgcc/bin/../lib/gcc/arm-none-eabi/9.3.1/../../../../arm-none-eabi/lib/thumb/v6-m/nofp\libg_nano.a(lib_a-init.o)
 .ARM.attributes
                0x00000cdd       0x2c c:/program files (x86)/embitz/2.10/share/armgcc/bin/../lib/gcc/arm-none-eabi/9.3.1/../../../../arm-none-eabi/lib/thumb/v6-m/nofp\libg_nano.a(lib_a-memset.o)
 .ARM.attributes
                0x00000d09       0x2c c:/program files (x86)/embitz/2.10/share/armgcc/bin/../lib/gcc/arm-none-eabi/9.3.1/../../../../arm-none-eabi/lib/thumb/v6-m/nofp\libnosys.a(_exit.o)
 .ARM.attributes
                0x00000d35       0x2c c:/program files (x86)/embitz/2.10/share/armgcc/bin/../lib/gcc/arm-none-eabi/9.3.1/thumb/v6-m/nofp/crtend.o
 .ARM.attributes
                0x00000d61       0x1e c:/program files (x86)/embitz/2.10/share/armgcc/bin/../lib/gcc/arm-none-eabi/9.3.1/thumb/v6-m/nofp/crtn.o
                0x20001f00                __StackLimit = (_estack - _Min_Stack_Size)
                0x00000001                ASSERT ((__StackLimit >= __HeapLimit), Region RAM overflowed with stack)
LOAD obj\debug\src\startup_stm32l053xx.o
LOAD obj\debug\hal\src\stm32l0xx_hal_adc.o
LOAD obj\debug\hal\src\stm32l0xx_hal_adc_ex.o
LOAD obj\debug\hal\src\stm32l0xx_hal_comp.o
LOAD obj\debug\hal\src\stm32l0xx_hal_comp_ex.o
LOAD obj\debug\hal\src\stm32l0xx_hal_cortex.o
LOAD obj\debug\hal\src\stm32l0xx_hal_crc.o
LOAD obj\debug\hal\src\stm32l0xx_hal_crc_ex.o
LOAD obj\debug\hal\src\stm32l0xx_hal_cryp.o
LOAD obj\debug\hal\src\stm32l0xx_hal_cryp_ex.o
LOAD obj\debug\hal\src\stm32l0xx_hal_dac.o
LOAD obj\debug\hal\src\stm32l0xx_hal_dac_ex.o
LOAD obj\debug\hal\src\stm32l0xx_hal_dma.o
LOAD obj\debug\hal\src\stm32l0xx_hal_firewall.o
LOAD obj\debug\hal\src\stm32l0xx_hal_flash.o
LOAD obj\debug\hal\src\stm32l0xx_hal_flash_ex.o
LOAD obj\debug\hal\src\stm32l0xx_hal_flash_ramfunc.o
LOAD obj\debug\hal\src\stm32l0xx_hal_gpio.o
LOAD obj\debug\hal\src\stm32l0xx_hal_i2c.o
LOAD obj\debug\hal\src\stm32l0xx_hal_i2c_ex.o
LOAD obj\debug\hal\src\stm32l0xx_hal_i2s.o
LOAD obj\debug\hal\src\stm32l0xx_hal_irda.o
LOAD obj\debug\hal\src\stm32l0xx_hal_iwdg.o
LOAD obj\debug\hal\src\stm32l0xx_hal_lcd.o
LOAD obj\debug\hal\src\stm32l0xx_hal_lptim.o
LOAD obj\debug\hal\src\stm32l0xx_hal_pcd.o
LOAD obj\debug\hal\src\stm32l0xx_hal_pcd_ex.o
LOAD obj\debug\hal\src\stm32l0xx_hal_pwr.o
LOAD obj\debug\hal\src\stm32l0xx_hal_pwr_ex.o
LOAD obj\debug\hal\src\stm32l0xx_hal_rcc.o
LOAD obj\debug\hal\src\stm32l0xx_hal_rcc_ex.o
LOAD obj\debug\hal\src\stm32l0xx_hal_rng.o
LOAD obj\debug\hal\src\stm32l0xx_hal_rtc.o
LOAD obj\debug\hal\src\stm32l0xx_hal_rtc_ex.o
LOAD obj\debug\hal\src\stm32l0xx_hal_smartcard.o
LOAD obj\debug\hal\src\stm32l0xx_hal_smartcard_ex.o
LOAD obj\debug\hal\src\stm32l0xx_hal_smbus.o
LOAD obj\debug\hal\src\stm32l0xx_hal_spi.o
LOAD obj\debug\hal\src\stm32l0xx_hal_tim.o
LOAD obj\debug\hal\src\stm32l0xx_hal_tim_ex.o
LOAD obj\debug\hal\src\stm32l0xx_hal_tsc.o
LOAD obj\debug\hal\src\stm32l0xx_hal_uart.o
LOAD obj\debug\hal\src\stm32l0xx_hal_uart_ex.o
LOAD obj\debug\hal\src\stm32l0xx_hal_usart.o
LOAD obj\debug\hal\src\stm32l0xx_hal_wwdg.o
LOAD obj\debug\src\bootloader_api_push.o
LOAD obj\debug\src\bootloader_utils.o
LOAD obj\debug\src\convert.o
LOAD obj\debug\src\drv_clock.o
LOAD obj\debug\src\drv_flash.o
LOAD obj\debug\src\drv_serial_port.o
LOAD obj\debug\src\drv_uart.o
LOAD obj\debug\src\drv_usb_main.o
LOAD obj\debug\src\main.o
LOAD obj\debug\src\sim.o
LOAD obj\debug\hal\src\stm32l0xx_hal.o
LOAD obj\debug\src\system_stm32l0xx.o
LOAD obj\debug\src\usb_cdc.o
LOAD obj\debug\src\usb_functions.o
LOAD obj\debug\src\usb_utilities.o
LOAD obj\debug\src\usbdesc.o
START GROUP
LOAD c:/program files (x86)/embitz/2.10/share/armgcc/bin/../lib/gcc/arm-none-eabi/9.3.1/thumb/v6-m/nofp\libgcc.a
LOAD c:/program files (x86)/embitz/2.10/share/armgcc/bin/../lib/gcc/arm-none-eabi/9.3.1/../../../../arm-none-eabi/lib/thumb/v6-m/nofp\libg_nano.a
LOAD c:/program files (x86)/embitz/2.10/share/armgcc/bin/../lib/gcc/arm-none-eabi/9.3.1/../../../../arm-none-eabi/lib/thumb/v6-m/nofp\libc_nano.a
END GROUP
START GROUP
LOAD c:/program files (x86)/embitz/2.10/share/armgcc/bin/../lib/gcc/arm-none-eabi/9.3.1/thumb/v6-m/nofp\libgcc.a
LOAD c:/program files (x86)/embitz/2.10/share/armgcc/bin/../lib/gcc/arm-none-eabi/9.3.1/../../../../arm-none-eabi/lib/thumb/v6-m/nofp\libc_nano.a
LOAD c:/program files (x86)/embitz/2.10/share/armgcc/bin/../lib/gcc/arm-none-eabi/9.3.1/../../../../arm-none-eabi/lib/thumb/v6-m/nofp\libnosys.a
END GROUP
START GROUP
LOAD c:/program files (x86)/embitz/2.10/share/armgcc/bin/../lib/gcc/arm-none-eabi/9.3.1/thumb/v6-m/nofp\libgcc.a
LOAD c:/program files (x86)/embitz/2.10/share/armgcc/bin/../lib/gcc/arm-none-eabi/9.3.1/../../../../arm-none-eabi/lib/thumb/v6-m/nofp\libc_nano.a
LOAD c:/program files (x86)/embitz/2.10/share/armgcc/bin/../lib/gcc/arm-none-eabi/9.3.1/../../../../arm-none-eabi/lib/thumb/v6-m/nofp\libnosys.a
END GROUP
LOAD c:/program files (x86)/embitz/2.10/share/armgcc/bin/../lib/gcc/arm-none-eabi/9.3.1/thumb/v6-m/nofp/crtend.o
LOAD c:/program files (x86)/embitz/2.10/share/armgcc/bin/../lib/gcc/arm-none-eabi/9.3.1/thumb/v6-m/nofp/crtn.o
OUTPUT(bin\Debug\bootloader_over_cmsis.elf elf32-littlearm)
LOAD linker stubs

.debug_line     0x00000000    0x10115
 .debug_line    0x00000000       0x7b obj\debug\src\startup_stm32l053xx.o
 .debug_line    0x0000007b      0x10f obj\debug\hal\src\stm32l0xx_hal_adc.o
 .debug_line    0x0000018a      0x10f obj\debug\hal\src\stm32l0xx_hal_adc_ex.o
 .debug_line    0x00000299      0x10f obj\debug\hal\src\stm32l0xx_hal_comp.o
 .debug_line    0x000003a8      0x10f obj\debug\hal\src\stm32l0xx_hal_comp_ex.o
 .debug_line    0x000004b7      0x5b0 obj\debug\hal\src\stm32l0xx_hal_cortex.o
 .debug_line    0x00000a67      0x10f obj\debug\hal\src\stm32l0xx_hal_crc.o
 .debug_line    0x00000b76      0x10f obj\debug\hal\src\stm32l0xx_hal_crc_ex.o
 .debug_line    0x00000c85        0x0 obj\debug\hal\src\stm32l0xx_hal_cryp.o
 .debug_line    0x00000c85        0x0 obj\debug\hal\src\stm32l0xx_hal_cryp_ex.o
 .debug_line    0x00000c85      0x10f obj\debug\hal\src\stm32l0xx_hal_dac.o
 .debug_line    0x00000d94      0x10f obj\debug\hal\src\stm32l0xx_hal_dac_ex.o
 .debug_line    0x00000ea3      0x6ba obj\debug\hal\src\stm32l0xx_hal_dma.o
 .debug_line    0x0000155d      0x10f obj\debug\hal\src\stm32l0xx_hal_firewall.o
 .debug_line    0x0000166c      0x555 obj\debug\hal\src\stm32l0xx_hal_flash.o
 .debug_line    0x00001bc1      0x802 obj\debug\hal\src\stm32l0xx_hal_flash_ex.o
 .debug_line    0x000023c3      0x2e2 obj\debug\hal\src\stm32l0xx_hal_flash_ramfunc.o
 .debug_line    0x000026a5      0x55f obj\debug\hal\src\stm32l0xx_hal_gpio.o
 .debug_line    0x00002c04      0x10f obj\debug\hal\src\stm32l0xx_hal_i2c.o
 .debug_line    0x00002d13      0x10f obj\debug\hal\src\stm32l0xx_hal_i2c_ex.o
 .debug_line    0x00002e22      0x10f obj\debug\hal\src\stm32l0xx_hal_i2s.o
 .debug_line    0x00002f31      0x10f obj\debug\hal\src\stm32l0xx_hal_irda.o
 .debug_line    0x00003040      0x10f obj\debug\hal\src\stm32l0xx_hal_iwdg.o
 .debug_line    0x0000314f      0x10f obj\debug\hal\src\stm32l0xx_hal_lcd.o
 .debug_line    0x0000325e      0x9e9 obj\debug\hal\src\stm32l0xx_hal_lptim.o
 .debug_line    0x00003c47      0x10f obj\debug\hal\src\stm32l0xx_hal_pcd.o
 .debug_line    0x00003d56      0x10f obj\debug\hal\src\stm32l0xx_hal_pcd_ex.o
 .debug_line    0x00003e65      0x380 obj\debug\hal\src\stm32l0xx_hal_pwr.o
 .debug_line    0x000041e5      0x232 obj\debug\hal\src\stm32l0xx_hal_pwr_ex.o
 .debug_line    0x00004417      0x92f obj\debug\hal\src\stm32l0xx_hal_rcc.o
 .debug_line    0x00004d46      0x838 obj\debug\hal\src\stm32l0xx_hal_rcc_ex.o
 .debug_line    0x0000557e      0x10f obj\debug\hal\src\stm32l0xx_hal_rng.o
 .debug_line    0x0000568d      0xb82 obj\debug\hal\src\stm32l0xx_hal_rtc.o
 .debug_line    0x0000620f      0xe96 obj\debug\hal\src\stm32l0xx_hal_rtc_ex.o
 .debug_line    0x000070a5      0x10f obj\debug\hal\src\stm32l0xx_hal_smartcard.o
 .debug_line    0x000071b4      0x10f obj\debug\hal\src\stm32l0xx_hal_smartcard_ex.o
 .debug_line    0x000072c3      0x10f obj\debug\hal\src\stm32l0xx_hal_smbus.o
 .debug_line    0x000073d2      0x10f obj\debug\hal\src\stm32l0xx_hal_spi.o
 .debug_line    0x000074e1     0x2049 obj\debug\hal\src\stm32l0xx_hal_tim.o
 .debug_line    0x0000952a      0x260 obj\debug\hal\src\stm32l0xx_hal_tim_ex.o
 .debug_line    0x0000978a      0x10f obj\debug\hal\src\stm32l0xx_hal_tsc.o
 .debug_line    0x00009899     0x163e obj\debug\hal\src\stm32l0xx_hal_uart.o
 .debug_line    0x0000aed7      0x393 obj\debug\hal\src\stm32l0xx_hal_uart_ex.o
 .debug_line    0x0000b26a     0x155c obj\debug\hal\src\stm32l0xx_hal_usart.o
 .debug_line    0x0000c7c6      0x10f obj\debug\hal\src\stm32l0xx_hal_wwdg.o
 .debug_line    0x0000c8d5      0x13c obj\debug\src\bootloader_api_push.o
 .debug_line    0x0000ca11      0x456 obj\debug\src\bootloader_utils.o
 .debug_line    0x0000ce67      0x3b3 obj\debug\src\convert.o
 .debug_line    0x0000d21a      0x24a obj\debug\src\drv_clock.o
 .debug_line    0x0000d464      0x35f obj\debug\src\drv_flash.o
 .debug_line    0x0000d7c3      0x835 obj\debug\src\drv_serial_port.o
 .debug_line    0x0000dff8      0x2e1 obj\debug\src\drv_uart.o
 .debug_line    0x0000e2d9      0x406 obj\debug\src\drv_usb_main.o
 .debug_line    0x0000e6df      0x1fa obj\debug\src\main.o
 .debug_line    0x0000e8d9      0x248 obj\debug\src\sim.o
 .debug_line    0x0000eb21      0x460 obj\debug\hal\src\stm32l0xx_hal.o
 .debug_line    0x0000ef81      0x248 obj\debug\src\system_stm32l0xx.o
 .debug_line    0x0000f1c9      0x296 obj\debug\src\usb_cdc.o
 .debug_line    0x0000f45f      0x6a8 obj\debug\src\usb_functions.o
 .debug_line    0x0000fb07      0x4b6 obj\debug\src\usb_utilities.o
 .debug_line    0x0000ffbd      0x158 obj\debug\src\usbdesc.o

.debug_info     0x00000000    0x15921
 .debug_info    0x00000000       0x22 obj\debug\src\startup_stm32l053xx.o
 .debug_info    0x00000022      0x121 obj\debug\hal\src\stm32l0xx_hal_adc.o
 .debug_info    0x00000143      0x121 obj\debug\hal\src\stm32l0xx_hal_adc_ex.o
 .debug_info    0x00000264      0x121 obj\debug\hal\src\stm32l0xx_hal_comp.o
 .debug_info    0x00000385      0x121 obj\debug\hal\src\stm32l0xx_hal_comp_ex.o
 .debug_info    0x000004a6      0x946 obj\debug\hal\src\stm32l0xx_hal_cortex.o
 .debug_info    0x00000dec      0x121 obj\debug\hal\src\stm32l0xx_hal_crc.o
 .debug_info    0x00000f0d      0x121 obj\debug\hal\src\stm32l0xx_hal_crc_ex.o
 .debug_info    0x0000102e      0x121 obj\debug\hal\src\stm32l0xx_hal_dac.o
 .debug_info    0x0000114f      0x121 obj\debug\hal\src\stm32l0xx_hal_dac_ex.o
 .debug_info    0x00001270      0x7e3 obj\debug\hal\src\stm32l0xx_hal_dma.o
 .debug_info    0x00001a53      0x121 obj\debug\hal\src\stm32l0xx_hal_firewall.o
 .debug_info    0x00001b74      0x627 obj\debug\hal\src\stm32l0xx_hal_flash.o
 .debug_info    0x0000219b      0xabd obj\debug\hal\src\stm32l0xx_hal_flash_ex.o
 .debug_info    0x00002c58      0x400 obj\debug\hal\src\stm32l0xx_hal_flash_ramfunc.o
 .debug_info    0x00003058      0x729 obj\debug\hal\src\stm32l0xx_hal_gpio.o
 .debug_info    0x00003781      0x121 obj\debug\hal\src\stm32l0xx_hal_i2c.o
 .debug_info    0x000038a2      0x121 obj\debug\hal\src\stm32l0xx_hal_i2c_ex.o
 .debug_info    0x000039c3      0x121 obj\debug\hal\src\stm32l0xx_hal_i2s.o
 .debug_info    0x00003ae4      0x121 obj\debug\hal\src\stm32l0xx_hal_irda.o
 .debug_info    0x00003c05      0x121 obj\debug\hal\src\stm32l0xx_hal_iwdg.o
 .debug_info    0x00003d26      0x121 obj\debug\hal\src\stm32l0xx_hal_lcd.o
 .debug_info    0x00003e47      0xe5a obj\debug\hal\src\stm32l0xx_hal_lptim.o
 .debug_info    0x00004ca1      0x121 obj\debug\hal\src\stm32l0xx_hal_pcd.o
 .debug_info    0x00004dc2      0x121 obj\debug\hal\src\stm32l0xx_hal_pcd_ex.o
 .debug_info    0x00004ee3      0x5ea obj\debug\hal\src\stm32l0xx_hal_pwr.o
 .debug_info    0x000054cd      0x229 obj\debug\hal\src\stm32l0xx_hal_pwr_ex.o
 .debug_info    0x000056f6      0x9e5 obj\debug\hal\src\stm32l0xx_hal_rcc.o
 .debug_info    0x000060db      0x88f obj\debug\hal\src\stm32l0xx_hal_rcc_ex.o
 .debug_info    0x0000696a      0x121 obj\debug\hal\src\stm32l0xx_hal_rng.o
 .debug_info    0x00006a8b      0xb47 obj\debug\hal\src\stm32l0xx_hal_rtc.o
 .debug_info    0x000075d2      0xe3f obj\debug\hal\src\stm32l0xx_hal_rtc_ex.o
 .debug_info    0x00008411      0x121 obj\debug\hal\src\stm32l0xx_hal_smartcard.o
 .debug_info    0x00008532      0x121 obj\debug\hal\src\stm32l0xx_hal_smartcard_ex.o
 .debug_info    0x00008653      0x121 obj\debug\hal\src\stm32l0xx_hal_smbus.o
 .debug_info    0x00008774      0x121 obj\debug\hal\src\stm32l0xx_hal_spi.o
 .debug_info    0x00008895     0x25ce obj\debug\hal\src\stm32l0xx_hal_tim.o
 .debug_info    0x0000ae63      0x6ec obj\debug\hal\src\stm32l0xx_hal_tim_ex.o
 .debug_info    0x0000b54f      0x121 obj\debug\hal\src\stm32l0xx_hal_tsc.o
 .debug_info    0x0000b670     0x1661 obj\debug\hal\src\stm32l0xx_hal_uart.o
 .debug_info    0x0000ccd1      0x917 obj\debug\hal\src\stm32l0xx_hal_uart_ex.o
 .debug_info    0x0000d5e8     0x1450 obj\debug\hal\src\stm32l0xx_hal_usart.o
 .debug_info    0x0000ea38      0x121 obj\debug\hal\src\stm32l0xx_hal_wwdg.o
 .debug_info    0x0000eb59      0x142 obj\debug\src\bootloader_api_push.o
 .debug_info    0x0000ec9b      0x83a obj\debug\src\bootloader_utils.o
 .debug_info    0x0000f4d5      0x339 obj\debug\src\convert.o
 .debug_info    0x0000f80e      0x778 obj\debug\src\drv_clock.o
 .debug_info    0x0000ff86      0x367 obj\debug\src\drv_flash.o
 .debug_info    0x000102ed     0x11aa obj\debug\src\drv_serial_port.o
 .debug_info    0x00011497      0xd44 obj\debug\src\drv_uart.o
 .debug_info    0x000121db      0x7b7 obj\debug\src\drv_usb_main.o
 .debug_info    0x00012992      0x4f9 obj\debug\src\main.o
 .debug_info    0x00012e8b      0x5e8 obj\debug\src\sim.o
 .debug_info    0x00013473      0x80e obj\debug\hal\src\stm32l0xx_hal.o
 .debug_info    0x00013c81      0x3c2 obj\debug\src\system_stm32l0xx.o
 .debug_info    0x00014043      0x5c3 obj\debug\src\usb_cdc.o
 .debug_info    0x00014606      0x8de obj\debug\src\usb_functions.o
 .debug_info    0x00014ee4      0x7a9 obj\debug\src\usb_utilities.o
 .debug_info    0x0001568d      0x294 obj\debug\src\usbdesc.o

.debug_abbrev   0x00000000     0x5027
 .debug_abbrev  0x00000000       0x12 obj\debug\src\startup_stm32l053xx.o
 .debug_abbrev  0x00000012       0x7b obj\debug\hal\src\stm32l0xx_hal_adc.o
 .debug_abbrev  0x0000008d       0x7b obj\debug\hal\src\stm32l0xx_hal_adc_ex.o
 .debug_abbrev  0x00000108       0x7b obj\debug\hal\src\stm32l0xx_hal_comp.o
 .debug_abbrev  0x00000183       0x7b obj\debug\hal\src\stm32l0xx_hal_comp_ex.o
 .debug_abbrev  0x000001fe      0x2b1 obj\debug\hal\src\stm32l0xx_hal_cortex.o
 .debug_abbrev  0x000004af       0x7b obj\debug\hal\src\stm32l0xx_hal_crc.o
 .debug_abbrev  0x0000052a       0x7b obj\debug\hal\src\stm32l0xx_hal_crc_ex.o
 .debug_abbrev  0x000005a5       0x7b obj\debug\hal\src\stm32l0xx_hal_dac.o
 .debug_abbrev  0x00000620       0x7b obj\debug\hal\src\stm32l0xx_hal_dac_ex.o
 .debug_abbrev  0x0000069b      0x1ed obj\debug\hal\src\stm32l0xx_hal_dma.o
 .debug_abbrev  0x00000888       0x7b obj\debug\hal\src\stm32l0xx_hal_firewall.o
 .debug_abbrev  0x00000903      0x2d4 obj\debug\hal\src\stm32l0xx_hal_flash.o
 .debug_abbrev  0x00000bd7      0x31a obj\debug\hal\src\stm32l0xx_hal_flash_ex.o
 .debug_abbrev  0x00000ef1      0x1d8 obj\debug\hal\src\stm32l0xx_hal_flash_ramfunc.o
 .debug_abbrev  0x000010c9      0x1e5 obj\debug\hal\src\stm32l0xx_hal_gpio.o
 .debug_abbrev  0x000012ae       0x7b obj\debug\hal\src\stm32l0xx_hal_i2c.o
 .debug_abbrev  0x00001329       0x7b obj\debug\hal\src\stm32l0xx_hal_i2c_ex.o
 .debug_abbrev  0x000013a4       0x7b obj\debug\hal\src\stm32l0xx_hal_i2s.o
 .debug_abbrev  0x0000141f       0x7b obj\debug\hal\src\stm32l0xx_hal_irda.o
 .debug_abbrev  0x0000149a       0x7b obj\debug\hal\src\stm32l0xx_hal_iwdg.o
 .debug_abbrev  0x00001515       0x7b obj\debug\hal\src\stm32l0xx_hal_lcd.o
 .debug_abbrev  0x00001590      0x216 obj\debug\hal\src\stm32l0xx_hal_lptim.o
 .debug_abbrev  0x000017a6       0x7b obj\debug\hal\src\stm32l0xx_hal_pcd.o
 .debug_abbrev  0x00001821       0x7b obj\debug\hal\src\stm32l0xx_hal_pcd_ex.o
 .debug_abbrev  0x0000189c      0x1aa obj\debug\hal\src\stm32l0xx_hal_pwr.o
 .debug_abbrev  0x00001a46      0x12f obj\debug\hal\src\stm32l0xx_hal_pwr_ex.o
 .debug_abbrev  0x00001b75      0x243 obj\debug\hal\src\stm32l0xx_hal_rcc.o
 .debug_abbrev  0x00001db8      0x211 obj\debug\hal\src\stm32l0xx_hal_rcc_ex.o
 .debug_abbrev  0x00001fc9       0x7b obj\debug\hal\src\stm32l0xx_hal_rng.o
 .debug_abbrev  0x00002044      0x1e9 obj\debug\hal\src\stm32l0xx_hal_rtc.o
 .debug_abbrev  0x0000222d      0x218 obj\debug\hal\src\stm32l0xx_hal_rtc_ex.o
 .debug_abbrev  0x00002445       0x7b obj\debug\hal\src\stm32l0xx_hal_smartcard.o
 .debug_abbrev  0x000024c0       0x7b obj\debug\hal\src\stm32l0xx_hal_smartcard_ex.o
 .debug_abbrev  0x0000253b       0x7b obj\debug\hal\src\stm32l0xx_hal_smbus.o
 .debug_abbrev  0x000025b6       0x7b obj\debug\hal\src\stm32l0xx_hal_spi.o
 .debug_abbrev  0x00002631      0x259 obj\debug\hal\src\stm32l0xx_hal_tim.o
 .debug_abbrev  0x0000288a      0x1ac obj\debug\hal\src\stm32l0xx_hal_tim_ex.o
 .debug_abbrev  0x00002a36       0x7b obj\debug\hal\src\stm32l0xx_hal_tsc.o
 .debug_abbrev  0x00002ab1      0x23d obj\debug\hal\src\stm32l0xx_hal_uart.o
 .debug_abbrev  0x00002cee      0x218 obj\debug\hal\src\stm32l0xx_hal_uart_ex.o
 .debug_abbrev  0x00002f06      0x259 obj\debug\hal\src\stm32l0xx_hal_usart.o
 .debug_abbrev  0x0000315f       0x7b obj\debug\hal\src\stm32l0xx_hal_wwdg.o
 .debug_abbrev  0x000031da       0xa5 obj\debug\src\bootloader_api_push.o
 .debug_abbrev  0x0000327f      0x2b0 obj\debug\src\bootloader_utils.o
 .debug_abbrev  0x0000352f      0x131 obj\debug\src\convert.o
 .debug_abbrev  0x00003660      0x185 obj\debug\src\drv_clock.o
 .debug_abbrev  0x000037e5      0x176 obj\debug\src\drv_flash.o
 .debug_abbrev  0x0000395b      0x3c7 obj\debug\src\drv_serial_port.o
 .debug_abbrev  0x00003d22      0x290 obj\debug\src\drv_uart.o
 .debug_abbrev  0x00003fb2      0x1d5 obj\debug\src\drv_usb_main.o
 .debug_abbrev  0x00004187      0x16a obj\debug\src\main.o
 .debug_abbrev  0x000042f1      0x1f4 obj\debug\src\sim.o
 .debug_abbrev  0x000044e5      0x246 obj\debug\hal\src\stm32l0xx_hal.o
 .debug_abbrev  0x0000472b      0x126 obj\debug\src\system_stm32l0xx.o
 .debug_abbrev  0x00004851      0x1af obj\debug\src\usb_cdc.o
 .debug_abbrev  0x00004a00      0x34a obj\debug\src\usb_functions.o
 .debug_abbrev  0x00004d4a      0x20a obj\debug\src\usb_utilities.o
 .debug_abbrev  0x00004f54       0xd3 obj\debug\src\usbdesc.o

.debug_aranges  0x00000000     0x17f8
 .debug_aranges
                0x00000000       0x28 obj\debug\src\startup_stm32l053xx.o
 .debug_aranges
                0x00000028       0x18 obj\debug\hal\src\stm32l0xx_hal_adc.o
 .debug_aranges
                0x00000040       0x18 obj\debug\hal\src\stm32l0xx_hal_adc_ex.o
 .debug_aranges
                0x00000058       0x18 obj\debug\hal\src\stm32l0xx_hal_comp.o
 .debug_aranges
                0x00000070       0x18 obj\debug\hal\src\stm32l0xx_hal_comp_ex.o
 .debug_aranges
                0x00000088       0xd8 obj\debug\hal\src\stm32l0xx_hal_cortex.o
 .debug_aranges
                0x00000160       0x18 obj\debug\hal\src\stm32l0xx_hal_crc.o
 .debug_aranges
                0x00000178       0x18 obj\debug\hal\src\stm32l0xx_hal_crc_ex.o
 .debug_aranges
                0x00000190       0x18 obj\debug\hal\src\stm32l0xx_hal_dac.o
 .debug_aranges
                0x000001a8       0x18 obj\debug\hal\src\stm32l0xx_hal_dac_ex.o
 .debug_aranges
                0x000001c0       0x80 obj\debug\hal\src\stm32l0xx_hal_dma.o
 .debug_aranges
                0x00000240       0x18 obj\debug\hal\src\stm32l0xx_hal_firewall.o
 .debug_aranges
                0x00000258       0x80 obj\debug\hal\src\stm32l0xx_hal_flash.o
 .debug_aranges
                0x000002d8       0xe0 obj\debug\hal\src\stm32l0xx_hal_flash_ex.o
 .debug_aranges
                0x000003b8       0x48 obj\debug\hal\src\stm32l0xx_hal_flash_ramfunc.o
 .debug_aranges
                0x00000400       0x58 obj\debug\hal\src\stm32l0xx_hal_gpio.o
 .debug_aranges
                0x00000458       0x18 obj\debug\hal\src\stm32l0xx_hal_i2c.o
 .debug_aranges
                0x00000470       0x18 obj\debug\hal\src\stm32l0xx_hal_i2c_ex.o
 .debug_aranges
                0x00000488       0x18 obj\debug\hal\src\stm32l0xx_hal_i2s.o
 .debug_aranges
                0x000004a0       0x18 obj\debug\hal\src\stm32l0xx_hal_irda.o
 .debug_aranges
                0x000004b8       0x18 obj\debug\hal\src\stm32l0xx_hal_iwdg.o
 .debug_aranges
                0x000004d0       0x18 obj\debug\hal\src\stm32l0xx_hal_lcd.o
 .debug_aranges
                0x000004e8      0x160 obj\debug\hal\src\stm32l0xx_hal_lptim.o
 .debug_aranges
                0x00000648       0x18 obj\debug\hal\src\stm32l0xx_hal_pcd.o
 .debug_aranges
                0x00000660       0x18 obj\debug\hal\src\stm32l0xx_hal_pcd_ex.o
 .debug_aranges
                0x00000678       0xa0 obj\debug\hal\src\stm32l0xx_hal_pwr.o
 .debug_aranges
                0x00000718       0x50 obj\debug\hal\src\stm32l0xx_hal_pwr_ex.o
 .debug_aranges
                0x00000768       0x80 obj\debug\hal\src\stm32l0xx_hal_rcc.o
 .debug_aranges
                0x000007e8       0xb0 obj\debug\hal\src\stm32l0xx_hal_rcc_ex.o
 .debug_aranges
                0x00000898       0x18 obj\debug\hal\src\stm32l0xx_hal_rng.o
 .debug_aranges
                0x000008b0       0xb8 obj\debug\hal\src\stm32l0xx_hal_rtc.o
 .debug_aranges
                0x00000968      0x120 obj\debug\hal\src\stm32l0xx_hal_rtc_ex.o
 .debug_aranges
                0x00000a88       0x18 obj\debug\hal\src\stm32l0xx_hal_smartcard.o
 .debug_aranges
                0x00000aa0       0x18 obj\debug\hal\src\stm32l0xx_hal_smartcard_ex.o
 .debug_aranges
                0x00000ab8       0x18 obj\debug\hal\src\stm32l0xx_hal_smbus.o
 .debug_aranges
                0x00000ad0       0x18 obj\debug\hal\src\stm32l0xx_hal_spi.o
 .debug_aranges
                0x00000ae8      0x3a8 obj\debug\hal\src\stm32l0xx_hal_tim.o
 .debug_aranges
                0x00000e90       0x28 obj\debug\hal\src\stm32l0xx_hal_tim_ex.o
 .debug_aranges
                0x00000eb8       0x18 obj\debug\hal\src\stm32l0xx_hal_tsc.o
 .debug_aranges
                0x00000ed0      0x1f8 obj\debug\hal\src\stm32l0xx_hal_uart.o
 .debug_aranges
                0x000010c8       0x60 obj\debug\hal\src\stm32l0xx_hal_uart_ex.o
 .debug_aranges
                0x00001128      0x180 obj\debug\hal\src\stm32l0xx_hal_usart.o
 .debug_aranges
                0x000012a8       0x18 obj\debug\hal\src\stm32l0xx_hal_wwdg.o
 .debug_aranges
                0x000012c0       0x20 obj\debug\src\bootloader_api_push.o
 .debug_aranges
                0x000012e0       0x38 obj\debug\src\bootloader_utils.o
 .debug_aranges
                0x00001318       0x48 obj\debug\src\convert.o
 .debug_aranges
                0x00001360       0x30 obj\debug\src\drv_clock.o
 .debug_aranges
                0x00001390       0x40 obj\debug\src\drv_flash.o
 .debug_aranges
                0x000013d0       0xb0 obj\debug\src\drv_serial_port.o
 .debug_aranges
                0x00001480       0x40 obj\debug\src\drv_uart.o
 .debug_aranges
                0x000014c0       0x48 obj\debug\src\drv_usb_main.o
 .debug_aranges
                0x00001508       0x20 obj\debug\src\main.o
 .debug_aranges
                0x00001528       0x40 obj\debug\src\sim.o
 .debug_aranges
                0x00001568       0xf8 obj\debug\hal\src\stm32l0xx_hal.o
 .debug_aranges
                0x00001660       0x28 obj\debug\src\system_stm32l0xx.o
 .debug_aranges
                0x00001688       0x60 obj\debug\src\usb_cdc.o
 .debug_aranges
                0x000016e8       0xa8 obj\debug\src\usb_functions.o
 .debug_aranges
                0x00001790       0x50 obj\debug\src\usb_utilities.o
 .debug_aranges
                0x000017e0       0x18 obj\debug\src\usbdesc.o

.debug_str      0x00000000     0x63a1
 .debug_str     0x00000000       0x72 obj\debug\src\startup_stm32l053xx.o
 .debug_str     0x00000072      0x16b obj\debug\hal\src\stm32l0xx_hal_adc.o
                                0x1fa (size before relaxing)
 .debug_str     0x000001dd       0x1f obj\debug\hal\src\stm32l0xx_hal_adc_ex.o
                                0x1fd (size before relaxing)
 .debug_str     0x000001fc       0x1d obj\debug\hal\src\stm32l0xx_hal_comp.o
                                0x1fb (size before relaxing)
 .debug_str     0x00000219       0x20 obj\debug\hal\src\stm32l0xx_hal_comp_ex.o
                                0x1fe (size before relaxing)
 .debug_str     0x00000239      0x531 obj\debug\hal\src\stm32l0xx_hal_cortex.o
                                0x743 (size before relaxing)
 .debug_str     0x0000076a       0x1c obj\debug\hal\src\stm32l0xx_hal_crc.o
                                0x1fa (size before relaxing)
 .debug_str     0x00000786       0x1f obj\debug\hal\src\stm32l0xx_hal_crc_ex.o
                                0x1fd (size before relaxing)
 .debug_str     0x000007a5       0x1d obj\debug\hal\src\stm32l0xx_hal_cryp.o
                                0x106 (size before relaxing)
 .debug_str     0x000007c2       0x20 obj\debug\hal\src\stm32l0xx_hal_cryp_ex.o
                                0x109 (size before relaxing)
 .debug_str     0x000007e2       0x1c obj\debug\hal\src\stm32l0xx_hal_dac.o
                                0x1fa (size before relaxing)
 .debug_str     0x000007fe       0x1f obj\debug\hal\src\stm32l0xx_hal_dac_ex.o
                                0x1fd (size before relaxing)
 .debug_str     0x0000081d      0x425 obj\debug\hal\src\stm32l0xx_hal_dma.o
                                0x66d (size before relaxing)
 .debug_str     0x00000c42       0x21 obj\debug\hal\src\stm32l0xx_hal_firewall.o
                                0x1ff (size before relaxing)
 .debug_str     0x00000c63      0x263 obj\debug\hal\src\stm32l0xx_hal_flash.o
                                0x4e3 (size before relaxing)
 .debug_str     0x00000ec6      0x41b obj\debug\hal\src\stm32l0xx_hal_flash_ex.o
                                0x7c2 (size before relaxing)
 .debug_str     0x000012e1       0xdf obj\debug\hal\src\stm32l0xx_hal_flash_ramfunc.o
                                0x42e (size before relaxing)
 .debug_str     0x000013c0      0x241 obj\debug\hal\src\stm32l0xx_hal_gpio.o
                                0x493 (size before relaxing)
 .debug_str     0x00001601       0x1c obj\debug\hal\src\stm32l0xx_hal_i2c.o
                                0x1fa (size before relaxing)
 .debug_str     0x0000161d       0x1f obj\debug\hal\src\stm32l0xx_hal_i2c_ex.o
                                0x1fd (size before relaxing)
 .debug_str     0x0000163c       0x1c obj\debug\hal\src\stm32l0xx_hal_i2s.o
                                0x1fa (size before relaxing)
 .debug_str     0x00001658       0x1d obj\debug\hal\src\stm32l0xx_hal_irda.o
                                0x1fb (size before relaxing)
 .debug_str     0x00001675       0x1d obj\debug\hal\src\stm32l0xx_hal_iwdg.o
                                0x1fb (size before relaxing)
 .debug_str     0x00001692       0x1c obj\debug\hal\src\stm32l0xx_hal_lcd.o
                                0x1fa (size before relaxing)
 .debug_str     0x000016ae      0x5b5 obj\debug\hal\src\stm32l0xx_hal_lptim.o
                                0x926 (size before relaxing)
 .debug_str     0x00001c63       0x1c obj\debug\hal\src\stm32l0xx_hal_pcd.o
                                0x1fa (size before relaxing)
 .debug_str     0x00001c7f       0x1f obj\debug\hal\src\stm32l0xx_hal_pcd_ex.o
                                0x1fd (size before relaxing)
 .debug_str     0x00001c9e      0x1f6 obj\debug\hal\src\stm32l0xx_hal_pwr.o
                                0x4ca (size before relaxing)
 .debug_str     0x00001e94       0xfe obj\debug\hal\src\stm32l0xx_hal_pwr_ex.o
                                0x320 (size before relaxing)
 .debug_str     0x00001f92      0x2ff obj\debug\hal\src\stm32l0xx_hal_rcc.o
                                0x6bd (size before relaxing)
 .debug_str     0x00002291      0x41d obj\debug\hal\src\stm32l0xx_hal_rcc_ex.o
                                0x789 (size before relaxing)
 .debug_str     0x000026ae       0x1c obj\debug\hal\src\stm32l0xx_hal_rng.o
                                0x1fa (size before relaxing)
 .debug_str     0x000026ca      0x405 obj\debug\hal\src\stm32l0xx_hal_rtc.o
                                0x6ca (size before relaxing)
 .debug_str     0x00002acf      0x51e obj\debug\hal\src\stm32l0xx_hal_rtc_ex.o
                                0x9cf (size before relaxing)
 .debug_str     0x00002fed       0x22 obj\debug\hal\src\stm32l0xx_hal_smartcard.o
                                0x200 (size before relaxing)
 .debug_str     0x0000300f       0x25 obj\debug\hal\src\stm32l0xx_hal_smartcard_ex.o
                                0x203 (size before relaxing)
 .debug_str     0x00003034       0x1e obj\debug\hal\src\stm32l0xx_hal_smbus.o
                                0x1fc (size before relaxing)
 .debug_str     0x00003052       0x1c obj\debug\hal\src\stm32l0xx_hal_spi.o
                                0x1fa (size before relaxing)
 .debug_str     0x0000306e      0xf3e obj\debug\hal\src\stm32l0xx_hal_tim.o
                               0x1403 (size before relaxing)
 .debug_str     0x00003fac       0xa5 obj\debug\hal\src\stm32l0xx_hal_tim_ex.o
                                0x68e (size before relaxing)
 .debug_str     0x00004051       0x1c obj\debug\hal\src\stm32l0xx_hal_tsc.o
                                0x1fa (size before relaxing)
 .debug_str     0x0000406d      0x880 obj\debug\hal\src\stm32l0xx_hal_uart.o
                                0xd96 (size before relaxing)
 .debug_str     0x000048ed      0x183 obj\debug\hal\src\stm32l0xx_hal_uart_ex.o
                                0x79b (size before relaxing)
 .debug_str     0x00004a70      0x609 obj\debug\hal\src\stm32l0xx_hal_usart.o
                                0xc0e (size before relaxing)
 .debug_str     0x00005079       0x1d obj\debug\hal\src\stm32l0xx_hal_wwdg.o
                                0x1fb (size before relaxing)
 .debug_str     0x00005096       0x98 obj\debug\src\bootloader_api_push.o
                                0x230 (size before relaxing)
 .debug_str     0x0000512e      0x2a0 obj\debug\src\bootloader_utils.o
                                0x6de (size before relaxing)
 .debug_str     0x000053ce       0x71 obj\debug\src\convert.o
                                0x226 (size before relaxing)
 .debug_str     0x0000543f       0x64 obj\debug\src\drv_clock.o
                                0x69c (size before relaxing)
 .debug_str     0x000054a3       0x6e obj\debug\src\drv_flash.o
                                0x2bd (size before relaxing)
 .debug_str     0x00005511      0x5b1 obj\debug\src\drv_serial_port.o
                                0x9ae (size before relaxing)
 .debug_str     0x00005ac2       0x73 obj\debug\src\drv_uart.o
                                0xa5b (size before relaxing)
 .debug_str     0x00005b35       0x8d obj\debug\src\drv_usb_main.o
                                0x6aa (size before relaxing)
 .debug_str     0x00005bc2       0x19 obj\debug\src\main.o
                                0x429 (size before relaxing)
 .debug_str     0x00005bdb       0x44 obj\debug\src\sim.o
                                0x454 (size before relaxing)
 .debug_str     0x00005c1f      0x2b2 obj\debug\hal\src\stm32l0xx_hal.o
                                0x797 (size before relaxing)
 .debug_str     0x00005ed1       0x4b obj\debug\src\system_stm32l0xx.o
                                0x2fe (size before relaxing)
 .debug_str     0x00005f1c       0x7f obj\debug\src\usb_cdc.o
                                0x42c (size before relaxing)
 .debug_str     0x00005f9b      0x341 obj\debug\src\usb_functions.o
                                0x5ce (size before relaxing)
 .debug_str     0x000062dc       0xa9 obj\debug\src\usb_utilities.o
                                0x4bd (size before relaxing)
 .debug_str     0x00006385       0x1c obj\debug\src\usbdesc.o
                                0x2f5 (size before relaxing)

.debug_ranges   0x00000000     0x13a8
 .debug_ranges  0x00000000       0x20 obj\debug\src\startup_stm32l053xx.o
 .debug_ranges  0x00000020       0xc8 obj\debug\hal\src\stm32l0xx_hal_cortex.o
 .debug_ranges  0x000000e8       0x70 obj\debug\hal\src\stm32l0xx_hal_dma.o
 .debug_ranges  0x00000158       0x70 obj\debug\hal\src\stm32l0xx_hal_flash.o
 .debug_ranges  0x000001c8       0xd0 obj\debug\hal\src\stm32l0xx_hal_flash_ex.o
 .debug_ranges  0x00000298       0x38 obj\debug\hal\src\stm32l0xx_hal_flash_ramfunc.o
 .debug_ranges  0x000002d0       0x48 obj\debug\hal\src\stm32l0xx_hal_gpio.o
 .debug_ranges  0x00000318      0x150 obj\debug\hal\src\stm32l0xx_hal_lptim.o
 .debug_ranges  0x00000468       0x90 obj\debug\hal\src\stm32l0xx_hal_pwr.o
 .debug_ranges  0x000004f8       0x40 obj\debug\hal\src\stm32l0xx_hal_pwr_ex.o
 .debug_ranges  0x00000538       0x70 obj\debug\hal\src\stm32l0xx_hal_rcc.o
 .debug_ranges  0x000005a8       0xa0 obj\debug\hal\src\stm32l0xx_hal_rcc_ex.o
 .debug_ranges  0x00000648       0xa8 obj\debug\hal\src\stm32l0xx_hal_rtc.o
 .debug_ranges  0x000006f0      0x110 obj\debug\hal\src\stm32l0xx_hal_rtc_ex.o
 .debug_ranges  0x00000800      0x398 obj\debug\hal\src\stm32l0xx_hal_tim.o
 .debug_ranges  0x00000b98       0x18 obj\debug\hal\src\stm32l0xx_hal_tim_ex.o
 .debug_ranges  0x00000bb0      0x1e8 obj\debug\hal\src\stm32l0xx_hal_uart.o
 .debug_ranges  0x00000d98       0x50 obj\debug\hal\src\stm32l0xx_hal_uart_ex.o
 .debug_ranges  0x00000de8      0x170 obj\debug\hal\src\stm32l0xx_hal_usart.o
 .debug_ranges  0x00000f58       0x10 obj\debug\src\bootloader_api_push.o
 .debug_ranges  0x00000f68       0x28 obj\debug\src\bootloader_utils.o
 .debug_ranges  0x00000f90       0x38 obj\debug\src\convert.o
 .debug_ranges  0x00000fc8       0x20 obj\debug\src\drv_clock.o
 .debug_ranges  0x00000fe8       0x30 obj\debug\src\drv_flash.o
 .debug_ranges  0x00001018       0xa0 obj\debug\src\drv_serial_port.o
 .debug_ranges  0x000010b8       0x30 obj\debug\src\drv_uart.o
 .debug_ranges  0x000010e8       0x58 obj\debug\src\drv_usb_main.o
 .debug_ranges  0x00001140       0x10 obj\debug\src\main.o
 .debug_ranges  0x00001150       0x30 obj\debug\src\sim.o
 .debug_ranges  0x00001180       0xe8 obj\debug\hal\src\stm32l0xx_hal.o
 .debug_ranges  0x00001268       0x18 obj\debug\src\system_stm32l0xx.o
 .debug_ranges  0x00001280       0x50 obj\debug\src\usb_cdc.o
 .debug_ranges  0x000012d0       0x98 obj\debug\src\usb_functions.o
 .debug_ranges  0x00001368       0x40 obj\debug\src\usb_utilities.o

.comment        0x00000000       0x4c
 .comment       0x00000000       0x4c obj\debug\hal\src\stm32l0xx_hal_adc.o
                                 0x4d (size before relaxing)
 .comment       0x0000004c       0x4d obj\debug\hal\src\stm32l0xx_hal_adc_ex.o
 .comment       0x0000004c       0x4d obj\debug\hal\src\stm32l0xx_hal_comp.o
 .comment       0x0000004c       0x4d obj\debug\hal\src\stm32l0xx_hal_comp_ex.o
 .comment       0x0000004c       0x4d obj\debug\hal\src\stm32l0xx_hal_cortex.o
 .comment       0x0000004c       0x4d obj\debug\hal\src\stm32l0xx_hal_crc.o
 .comment       0x0000004c       0x4d obj\debug\hal\src\stm32l0xx_hal_crc_ex.o
 .comment       0x0000004c       0x4d obj\debug\hal\src\stm32l0xx_hal_cryp.o
 .comment       0x0000004c       0x4d obj\debug\hal\src\stm32l0xx_hal_cryp_ex.o
 .comment       0x0000004c       0x4d obj\debug\hal\src\stm32l0xx_hal_dac.o
 .comment       0x0000004c       0x4d obj\debug\hal\src\stm32l0xx_hal_dac_ex.o
 .comment       0x0000004c       0x4d obj\debug\hal\src\stm32l0xx_hal_dma.o
 .comment       0x0000004c       0x4d obj\debug\hal\src\stm32l0xx_hal_firewall.o
 .comment       0x0000004c       0x4d obj\debug\hal\src\stm32l0xx_hal_flash.o
 .comment       0x0000004c       0x4d obj\debug\hal\src\stm32l0xx_hal_flash_ex.o
 .comment       0x0000004c       0x4d obj\debug\hal\src\stm32l0xx_hal_flash_ramfunc.o
 .comment       0x0000004c       0x4d obj\debug\hal\src\stm32l0xx_hal_gpio.o
 .comment       0x0000004c       0x4d obj\debug\hal\src\stm32l0xx_hal_i2c.o
 .comment       0x0000004c       0x4d obj\debug\hal\src\stm32l0xx_hal_i2c_ex.o
 .comment       0x0000004c       0x4d obj\debug\hal\src\stm32l0xx_hal_i2s.o
 .comment       0x0000004c       0x4d obj\debug\hal\src\stm32l0xx_hal_irda.o
 .comment       0x0000004c       0x4d obj\debug\hal\src\stm32l0xx_hal_iwdg.o
 .comment       0x0000004c       0x4d obj\debug\hal\src\stm32l0xx_hal_lcd.o
 .comment       0x0000004c       0x4d obj\debug\hal\src\stm32l0xx_hal_lptim.o
 .comment       0x0000004c       0x4d obj\debug\hal\src\stm32l0xx_hal_pcd.o
 .comment       0x0000004c       0x4d obj\debug\hal\src\stm32l0xx_hal_pcd_ex.o
 .comment       0x0000004c       0x4d obj\debug\hal\src\stm32l0xx_hal_pwr.o
 .comment       0x0000004c       0x4d obj\debug\hal\src\stm32l0xx_hal_pwr_ex.o
 .comment       0x0000004c       0x4d obj\debug\hal\src\stm32l0xx_hal_rcc.o
 .comment       0x0000004c       0x4d obj\debug\hal\src\stm32l0xx_hal_rcc_ex.o
 .comment       0x0000004c       0x4d obj\debug\hal\src\stm32l0xx_hal_rng.o
 .comment       0x0000004c       0x4d obj\debug\hal\src\stm32l0xx_hal_rtc.o
 .comment       0x0000004c       0x4d obj\debug\hal\src\stm32l0xx_hal_rtc_ex.o
 .comment       0x0000004c       0x4d obj\debug\hal\src\stm32l0xx_hal_smartcard.o
 .comment       0x0000004c       0x4d obj\debug\hal\src\stm32l0xx_hal_smartcard_ex.o
 .comment       0x0000004c       0x4d obj\debug\hal\src\stm32l0xx_hal_smbus.o
 .comment       0x0000004c       0x4d obj\debug\hal\src\stm32l0xx_hal_spi.o
 .comment       0x0000004c       0x4d obj\debug\hal\src\stm32l0xx_hal_tim.o
 .comment       0x0000004c       0x4d obj\debug\hal\src\stm32l0xx_hal_tim_ex.o
 .comment       0x0000004c       0x4d obj\debug\hal\src\stm32l0xx_hal_tsc.o
 .comment       0x0000004c       0x4d obj\debug\hal\src\stm32l0xx_hal_uart.o
 .comment       0x0000004c       0x4d obj\debug\hal\src\stm32l0xx_hal_uart_ex.o
 .comment       0x0000004c       0x4d obj\debug\hal\src\stm32l0xx_hal_usart.o
 .comment       0x0000004c       0x4d obj\debug\hal\src\stm32l0xx_hal_wwdg.o
 .comment       0x0000004c       0x4d obj\debug\src\bootloader_api_push.o
 .comment       0x0000004c       0x4d obj\debug\src\bootloader_utils.o
 .comment       0x0000004c       0x4d obj\debug\src\convert.o
 .comment       0x0000004c       0x4d obj\debug\src\drv_clock.o
 .comment       0x0000004c       0x4d obj\debug\src\drv_flash.o
 .comment       0x0000004c       0x4d obj\debug\src\drv_serial_port.o
 .comment       0x0000004c       0x4d obj\debug\src\drv_uart.o
 .comment       0x0000004c       0x4d obj\debug\src\drv_usb_main.o
 .comment       0x0000004c       0x4d obj\debug\src\main.o
 .comment       0x0000004c       0x4d obj\debug\src\sim.o
 .comment       0x0000004c       0x4d obj\debug\hal\src\stm32l0xx_hal.o
 .comment       0x0000004c       0x4d obj\debug\src\system_stm32l0xx.o
 .comment       0x0000004c       0x4d obj\debug\src\usb_cdc.o
 .comment       0x0000004c       0x4d obj\debug\src\usb_functions.o
 .comment       0x0000004c       0x4d obj\debug\src\usb_utilities.o
 .comment       0x0000004c       0x4d obj\debug\src\usbdesc.o

.debug_frame    0x00000000     0x4b60
 .debug_frame   0x00000000      0x2fc obj\debug\hal\src\stm32l0xx_hal_cortex.o
 .debug_frame   0x000002fc      0x1b0 obj\debug\hal\src\stm32l0xx_hal_dma.o
 .debug_frame   0x000004ac      0x1a4 obj\debug\hal\src\stm32l0xx_hal_flash.o
 .debug_frame   0x00000650      0x344 obj\debug\hal\src\stm32l0xx_hal_flash_ex.o
 .debug_frame   0x00000994       0xcc obj\debug\hal\src\stm32l0xx_hal_flash_ramfunc.o
 .debug_frame   0x00000a60      0x110 obj\debug\hal\src\stm32l0xx_hal_gpio.o
 .debug_frame   0x00000b70      0x530 obj\debug\hal\src\stm32l0xx_hal_lptim.o
 .debug_frame   0x000010a0      0x200 obj\debug\hal\src\stm32l0xx_hal_pwr.o
 .debug_frame   0x000012a0       0xd8 obj\debug\hal\src\stm32l0xx_hal_pwr_ex.o
 .debug_frame   0x00001378      0x1a4 obj\debug\hal\src\stm32l0xx_hal_rcc.o
 .debug_frame   0x0000151c      0x244 obj\debug\hal\src\stm32l0xx_hal_rcc_ex.o
 .debug_frame   0x00001760      0x290 obj\debug\hal\src\stm32l0xx_hal_rtc.o
 .debug_frame   0x000019f0      0x430 obj\debug\hal\src\stm32l0xx_hal_rtc_ex.o
 .debug_frame   0x00001e20      0xe50 obj\debug\hal\src\stm32l0xx_hal_tim.o
 .debug_frame   0x00002c70       0x50 obj\debug\hal\src\stm32l0xx_hal_tim_ex.o
 .debug_frame   0x00002cc0      0x794 obj\debug\hal\src\stm32l0xx_hal_uart.o
 .debug_frame   0x00003454      0x130 obj\debug\hal\src\stm32l0xx_hal_uart_ex.o
 .debug_frame   0x00003584      0x5b4 obj\debug\hal\src\stm32l0xx_hal_usart.o
 .debug_frame   0x00003b38       0x2c obj\debug\src\bootloader_api_push.o
 .debug_frame   0x00003b64       0x8c obj\debug\src\bootloader_utils.o
 .debug_frame   0x00003bf0       0xcc obj\debug\src\convert.o
 .debug_frame   0x00003cbc       0x70 obj\debug\src\drv_clock.o
 .debug_frame   0x00003d2c       0xa8 obj\debug\src\drv_flash.o
 .debug_frame   0x00003dd4      0x268 obj\debug\src\drv_serial_port.o
 .debug_frame   0x0000403c       0xac obj\debug\src\drv_uart.o
 .debug_frame   0x000040e8       0xcc obj\debug\src\drv_usb_main.o
 .debug_frame   0x000041b4       0x30 obj\debug\src\main.o
 .debug_frame   0x000041e4       0xb0 obj\debug\src\sim.o
 .debug_frame   0x00004294      0x338 obj\debug\hal\src\stm32l0xx_hal.o
 .debug_frame   0x000045cc       0x4c obj\debug\src\system_stm32l0xx.o
 .debug_frame   0x00004618      0x114 obj\debug\src\usb_cdc.o
 .debug_frame   0x0000472c      0x234 obj\debug\src\usb_functions.o
 .debug_frame   0x00004960       0xf0 obj\debug\src\usb_utilities.o
 .debug_frame   0x00004a50       0x20 c:/program files (x86)/embitz/2.10/share/armgcc/bin/../lib/gcc/arm-none-eabi/9.3.1/thumb/v6-m/nofp\libgcc.a(_udivsi3.o)
 .debug_frame   0x00004a70       0x20 c:/program files (x86)/embitz/2.10/share/armgcc/bin/../lib/gcc/arm-none-eabi/9.3.1/thumb/v6-m/nofp\libgcc.a(_divsi3.o)
 .debug_frame   0x00004a90       0x3c c:/program files (x86)/embitz/2.10/share/armgcc/bin/../lib/gcc/arm-none-eabi/9.3.1/thumb/v6-m/nofp\libgcc.a(_udivmoddi4.o)
 .debug_frame   0x00004acc       0x28 c:/program files (x86)/embitz/2.10/share/armgcc/bin/../lib/gcc/arm-none-eabi/9.3.1/../../../../arm-none-eabi/lib/thumb/v6-m/nofp\libg_nano.a(lib_a-exit.o)
 .debug_frame   0x00004af4       0x2c c:/program files (x86)/embitz/2.10/share/armgcc/bin/../lib/gcc/arm-none-eabi/9.3.1/../../../../arm-none-eabi/lib/thumb/v6-m/nofp\libg_nano.a(lib_a-init.o)
 .debug_frame   0x00004b20       0x20 c:/program files (x86)/embitz/2.10/share/armgcc/bin/../lib/gcc/arm-none-eabi/9.3.1/../../../../arm-none-eabi/lib/thumb/v6-m/nofp\libg_nano.a(lib_a-memset.o)
 .debug_frame   0x00004b40       0x20 c:/program files (x86)/embitz/2.10/share/armgcc/bin/../lib/gcc/arm-none-eabi/9.3.1/../../../../arm-none-eabi/lib/thumb/v6-m/nofp\libnosys.a(_exit.o)
